
RCController.elf:     file format elf32-avr

Sections:
Idx Name          Size      VMA       LMA       File off  Algn
  0 .data         00000064  00800200  0000117a  0000120e  2**0
                  CONTENTS, ALLOC, LOAD, DATA
  1 .text         0000117a  00000000  00000000  00000094  2**1
                  CONTENTS, ALLOC, LOAD, READONLY, CODE
  2 .bss          00000013  00800264  00800264  00001272  2**0
                  ALLOC
  3 .comment      00000030  00000000  00000000  00001272  2**0
                  CONTENTS, READONLY
  4 .note.gnu.avr.deviceinfo 00000040  00000000  00000000  000012a4  2**2
                  CONTENTS, READONLY
  5 .debug_aranges 00000488  00000000  00000000  000012e4  2**0
                  CONTENTS, READONLY, DEBUGGING
  6 .debug_info   0000778a  00000000  00000000  0000176c  2**0
                  CONTENTS, READONLY, DEBUGGING
  7 .debug_abbrev 00001fe6  00000000  00000000  00008ef6  2**0
                  CONTENTS, READONLY, DEBUGGING
  8 .debug_line   00002464  00000000  00000000  0000aedc  2**0
                  CONTENTS, READONLY, DEBUGGING
  9 .debug_frame  00000e8c  00000000  00000000  0000d340  2**2
                  CONTENTS, READONLY, DEBUGGING
 10 .debug_str    0000234c  00000000  00000000  0000e1cc  2**0
                  CONTENTS, READONLY, DEBUGGING
 11 .debug_loc    00005245  00000000  00000000  00010518  2**0
                  CONTENTS, READONLY, DEBUGGING
 12 .debug_ranges 00000450  00000000  00000000  0001575d  2**0
                  CONTENTS, READONLY, DEBUGGING

Disassembly of section .text:

00000000 <__vectors>:
       0:	0d c1       	rjmp	.+538    	; 0x21c <__ctors_end>
       2:	00 00       	nop
       4:	2c c4       	rjmp	.+2136   	; 0x85e <__vector_1>
       6:	00 00       	nop
       8:	55 c4       	rjmp	.+2218   	; 0x8b4 <__vector_2>
       a:	00 00       	nop
       c:	7e c4       	rjmp	.+2300   	; 0x90a <__vector_3>
       e:	00 00       	nop
      10:	a7 c4       	rjmp	.+2382   	; 0x960 <__vector_4>
      12:	00 00       	nop
      14:	d0 c4       	rjmp	.+2464   	; 0x9b6 <__vector_5>
      16:	00 00       	nop
      18:	f9 c4       	rjmp	.+2546   	; 0xa0c <__vector_6>
      1a:	00 00       	nop
      1c:	22 c5       	rjmp	.+2628   	; 0xa62 <__vector_7>
      1e:	00 00       	nop
      20:	4b c5       	rjmp	.+2710   	; 0xab8 <__vector_8>
      22:	00 00       	nop
      24:	1a c1       	rjmp	.+564    	; 0x25a <__bad_interrupt>
      26:	00 00       	nop
      28:	18 c1       	rjmp	.+560    	; 0x25a <__bad_interrupt>
      2a:	00 00       	nop
      2c:	16 c1       	rjmp	.+556    	; 0x25a <__bad_interrupt>
      2e:	00 00       	nop
      30:	14 c1       	rjmp	.+552    	; 0x25a <__bad_interrupt>
      32:	00 00       	nop
      34:	12 c1       	rjmp	.+548    	; 0x25a <__bad_interrupt>
      36:	00 00       	nop
      38:	10 c1       	rjmp	.+544    	; 0x25a <__bad_interrupt>
      3a:	00 00       	nop
      3c:	0e c1       	rjmp	.+540    	; 0x25a <__bad_interrupt>
      3e:	00 00       	nop
      40:	0c c1       	rjmp	.+536    	; 0x25a <__bad_interrupt>
      42:	00 00       	nop
      44:	0a c1       	rjmp	.+532    	; 0x25a <__bad_interrupt>
      46:	00 00       	nop
      48:	08 c1       	rjmp	.+528    	; 0x25a <__bad_interrupt>
      4a:	00 00       	nop
      4c:	06 c1       	rjmp	.+524    	; 0x25a <__bad_interrupt>
      4e:	00 00       	nop
      50:	04 c1       	rjmp	.+520    	; 0x25a <__bad_interrupt>
      52:	00 00       	nop
      54:	02 c1       	rjmp	.+516    	; 0x25a <__bad_interrupt>
      56:	00 00       	nop
      58:	00 c1       	rjmp	.+512    	; 0x25a <__bad_interrupt>
      5a:	00 00       	nop
      5c:	58 c5       	rjmp	.+2736   	; 0xb0e <__vector_23>
      5e:	00 00       	nop
      60:	fc c0       	rjmp	.+504    	; 0x25a <__bad_interrupt>
      62:	00 00       	nop
      64:	fa c0       	rjmp	.+500    	; 0x25a <__bad_interrupt>
      66:	00 00       	nop
      68:	f8 c0       	rjmp	.+496    	; 0x25a <__bad_interrupt>
      6a:	00 00       	nop
      6c:	f6 c0       	rjmp	.+492    	; 0x25a <__bad_interrupt>
      6e:	00 00       	nop
      70:	f4 c0       	rjmp	.+488    	; 0x25a <__bad_interrupt>
      72:	00 00       	nop
      74:	f2 c0       	rjmp	.+484    	; 0x25a <__bad_interrupt>
      76:	00 00       	nop
      78:	f0 c0       	rjmp	.+480    	; 0x25a <__bad_interrupt>
      7a:	00 00       	nop
      7c:	ee c0       	rjmp	.+476    	; 0x25a <__bad_interrupt>
      7e:	00 00       	nop
      80:	ec c0       	rjmp	.+472    	; 0x25a <__bad_interrupt>
      82:	00 00       	nop
      84:	ea c0       	rjmp	.+468    	; 0x25a <__bad_interrupt>
      86:	00 00       	nop
      88:	e8 c0       	rjmp	.+464    	; 0x25a <__bad_interrupt>
      8a:	00 00       	nop
      8c:	e6 c0       	rjmp	.+460    	; 0x25a <__bad_interrupt>
      8e:	00 00       	nop
      90:	e4 c0       	rjmp	.+456    	; 0x25a <__bad_interrupt>
      92:	00 00       	nop
      94:	e2 c0       	rjmp	.+452    	; 0x25a <__bad_interrupt>
      96:	00 00       	nop
      98:	e0 c0       	rjmp	.+448    	; 0x25a <__bad_interrupt>
      9a:	00 00       	nop
      9c:	de c0       	rjmp	.+444    	; 0x25a <__bad_interrupt>
      9e:	00 00       	nop
      a0:	dc c0       	rjmp	.+440    	; 0x25a <__bad_interrupt>
      a2:	00 00       	nop
      a4:	da c0       	rjmp	.+436    	; 0x25a <__bad_interrupt>
      a6:	00 00       	nop
      a8:	d8 c0       	rjmp	.+432    	; 0x25a <__bad_interrupt>
      aa:	00 00       	nop
      ac:	d6 c0       	rjmp	.+428    	; 0x25a <__bad_interrupt>
      ae:	00 00       	nop
      b0:	d4 c0       	rjmp	.+424    	; 0x25a <__bad_interrupt>
      b2:	00 00       	nop
      b4:	d2 c0       	rjmp	.+420    	; 0x25a <__bad_interrupt>
      b6:	00 00       	nop
      b8:	d0 c0       	rjmp	.+416    	; 0x25a <__bad_interrupt>
      ba:	00 00       	nop
      bc:	ce c0       	rjmp	.+412    	; 0x25a <__bad_interrupt>
      be:	00 00       	nop
      c0:	cc c0       	rjmp	.+408    	; 0x25a <__bad_interrupt>
      c2:	00 00       	nop
      c4:	ca c0       	rjmp	.+404    	; 0x25a <__bad_interrupt>
      c6:	00 00       	nop
      c8:	c8 c0       	rjmp	.+400    	; 0x25a <__bad_interrupt>
      ca:	00 00       	nop
      cc:	c6 c0       	rjmp	.+396    	; 0x25a <__bad_interrupt>
      ce:	00 00       	nop
      d0:	c4 c0       	rjmp	.+392    	; 0x25a <__bad_interrupt>
      d2:	00 00       	nop
      d4:	c2 c0       	rjmp	.+388    	; 0x25a <__bad_interrupt>
      d6:	00 00       	nop
      d8:	c0 c0       	rjmp	.+384    	; 0x25a <__bad_interrupt>
      da:	00 00       	nop
      dc:	be c0       	rjmp	.+380    	; 0x25a <__bad_interrupt>
      de:	00 00       	nop
      e0:	bc c0       	rjmp	.+376    	; 0x25a <__bad_interrupt>
      e2:	00 00       	nop
      e4:	09 04       	cpc	r0, r9
      e6:	d3 03       	fmuls	r21, r19
      e8:	db 03       	fmulsu	r21, r19
      ea:	e7 03       	fmuls	r22, r23
      ec:	f4 03       	fmuls	r23, r20
      ee:	15 04       	cpc	r1, r5
      f0:	22 04       	cpc	r2, r2
      f2:	b6 06       	cpc	r11, r22
      f4:	b9 06       	cpc	r11, r25
      f6:	a8 06       	cpc	r10, r24
      f8:	ac 06       	cpc	r10, r28
      fa:	b2 06       	cpc	r11, r18
      fc:	f0 06       	cpc	r15, r16
      fe:	bd 06       	cpc	r11, r29
     100:	c1 06       	cpc	r12, r17
     102:	c7 06       	cpc	r12, r23
     104:	cb 06       	cpc	r12, r27
     106:	cf 06       	cpc	r12, r31
     108:	d5 06       	cpc	r13, r21
     10a:	d9 06       	cpc	r13, r25
     10c:	dd 06       	cpc	r13, r29
     10e:	f0 06       	cpc	r15, r16
     110:	e3 06       	cpc	r14, r19
     112:	e7 06       	cpc	r14, r23
     114:	eb 06       	cpc	r14, r27

00000116 <__trampolines_end>:
     116:	00 00       	nop
     118:	0a 0b       	sbc	r16, r26
     11a:	02 09       	sbc	r16, r2
     11c:	0c 0d       	add	r16, r12
     11e:	0e 08       	sbc	r0, r14
     120:	07 03       	mulsu	r16, r23
     122:	04 01       	movw	r0, r8
	...
     140:	00 00       	nop
     142:	12 11       	cpse	r17, r2
     144:	10 00       	.word	0x0010	; ????
	...

0000015c <digital_pin_to_bit_mask_PGM>:
     15c:	01 02 10 20 20 08 08 10 20 40 10 20 40 80 02 01     ...  ... @. @...
     16c:	02 01 08 04 02 01 01 02 04 08 10 20 40 80 80 40     ........... @..@
     17c:	20 10 08 04 02 01 80 04 02 01 80 40 20 10 08 04      ..........@ ...
     18c:	02 01 08 04 02 01 01 02 04 08 10 20 40 80 01 02     ........... @...
     19c:	04 08 10 20 40 80                                   ... @.

000001a2 <digital_pin_to_port_PGM>:
     1a2:	05 05 05 05 07 05 08 08 08 08 02 02 02 02 0a 0a     ................
     1b2:	08 08 04 04 04 04 01 01 01 01 01 01 01 01 03 03     ................
     1c2:	03 03 03 03 03 03 04 07 07 07 0c 0c 0c 0c 0c 0c     ................
     1d2:	0c 0c 02 02 02 02 06 06 06 06 06 06 06 06 0b 0b     ................
     1e2:	0b 0b 0b 0b 0b 0b                                   ......

000001e8 <port_to_output_PGM>:
     1e8:	00 00 22 00 25 00 28 00 2b 00 2e 00 31 00 34 00     ..".%.(.+...1.4.
     1f8:	02 01 00 00 05 01 08 01 0b 01                       ..........

00000202 <port_to_mode_PGM>:
     202:	00 00 21 00 24 00 27 00 2a 00 2d 00 30 00 33 00     ..!.$.'.*.-.0.3.
     212:	01 01 00 00 04 01 07 01 0a 01                       ..........

0000021c <__ctors_end>:
     21c:	11 24       	eor	r1, r1
     21e:	1f be       	out	0x3f, r1	; 63
     220:	cf ef       	ldi	r28, 0xFF	; 255
     222:	d1 e2       	ldi	r29, 0x21	; 33
     224:	de bf       	out	0x3e, r29	; 62
     226:	cd bf       	out	0x3d, r28	; 61
     228:	00 e0       	ldi	r16, 0x00	; 0
     22a:	0c bf       	out	0x3c, r16	; 60

0000022c <__do_copy_data>:
     22c:	12 e0       	ldi	r17, 0x02	; 2
     22e:	a0 e0       	ldi	r26, 0x00	; 0
     230:	b2 e0       	ldi	r27, 0x02	; 2
     232:	ea e7       	ldi	r30, 0x7A	; 122
     234:	f1 e1       	ldi	r31, 0x11	; 17
     236:	00 e0       	ldi	r16, 0x00	; 0
     238:	0b bf       	out	0x3b, r16	; 59
     23a:	02 c0       	rjmp	.+4      	; 0x240 <__do_copy_data+0x14>
     23c:	07 90       	elpm	r0, Z+
     23e:	0d 92       	st	X+, r0
     240:	a4 36       	cpi	r26, 0x64	; 100
     242:	b1 07       	cpc	r27, r17
     244:	d9 f7       	brne	.-10     	; 0x23c <__do_copy_data+0x10>

00000246 <__do_clear_bss>:
     246:	22 e0       	ldi	r18, 0x02	; 2
     248:	a4 e6       	ldi	r26, 0x64	; 100
     24a:	b2 e0       	ldi	r27, 0x02	; 2
     24c:	01 c0       	rjmp	.+2      	; 0x250 <.do_clear_bss_start>

0000024e <.do_clear_bss_loop>:
     24e:	1d 92       	st	X+, r1

00000250 <.do_clear_bss_start>:
     250:	a7 37       	cpi	r26, 0x77	; 119
     252:	b2 07       	cpc	r27, r18
     254:	e1 f7       	brne	.-8      	; 0x24e <.do_clear_bss_loop>
     256:	43 d2       	rcall	.+1158   	; 0x6de <main>
     258:	8e c7       	rjmp	.+3868   	; 0x1176 <_exit>

0000025a <__bad_interrupt>:
     25a:	d2 ce       	rjmp	.-604    	; 0x0 <__vectors>

0000025c <controller_interrupt_buttons>:
	lcd_clear(self->lcd);
	lcd_print(self->lcd, "WELCOME");
}

void controller_interrupt_buttons()
{
     25c:	08 95       	ret

0000025e <controller_initialize>:
#include "controller.h"

tact_switch_board controller_tact_switches;

void controller_initialize(controller *self)
{   
     25e:	ef 92       	push	r14
     260:	0f 93       	push	r16
     262:	cf 93       	push	r28
     264:	df 93       	push	r29
     266:	ec 01       	movw	r28, r24
    self->switches = &controller_tact_switches;
     268:	e6 e0       	ldi	r30, 0x06	; 6
     26a:	f2 e0       	ldi	r31, 0x02	; 2
     26c:	f9 83       	std	Y+1, r31	; 0x01
     26e:	e8 83       	st	Y, r30
    self->switches->data_pin = 1;
     270:	81 e0       	ldi	r24, 0x01	; 1
     272:	80 83       	st	Z, r24
    self->switches->interrupt_pin = 2;
     274:	e8 81       	ld	r30, Y
     276:	f9 81       	ldd	r31, Y+1	; 0x01
     278:	82 e0       	ldi	r24, 0x02	; 2
     27a:	81 83       	std	Z+1, r24	; 0x01
  
    self->leds = malloc(sizeof(led_shift_register));
     27c:	88 e0       	ldi	r24, 0x08	; 8
     27e:	90 e0       	ldi	r25, 0x00	; 0
     280:	59 d6       	rcall	.+3250   	; 0xf34 <malloc>
     282:	fc 01       	movw	r30, r24
     284:	9b 83       	std	Y+3, r25	; 0x03
     286:	8a 83       	std	Y+2, r24	; 0x02
    self->leds->data_pin = 53;
     288:	85 e3       	ldi	r24, 0x35	; 53
     28a:	90 e0       	ldi	r25, 0x00	; 0
     28c:	91 83       	std	Z+1, r25	; 0x01
     28e:	80 83       	st	Z, r24
    self->leds->clock_pin = 49;
     290:	81 e3       	ldi	r24, 0x31	; 49
     292:	90 e0       	ldi	r25, 0x00	; 0
     294:	93 83       	std	Z+3, r25	; 0x03
     296:	82 83       	std	Z+2, r24	; 0x02
    self->leds->latch_pin = 51;
     298:	83 e3       	ldi	r24, 0x33	; 51
     29a:	90 e0       	ldi	r25, 0x00	; 0
     29c:	95 83       	std	Z+5, r25	; 0x05
     29e:	84 83       	std	Z+4, r24	; 0x04

	pinMode(self->leds->data_pin, OUTPUT);
     2a0:	61 e0       	ldi	r22, 0x01	; 1
     2a2:	85 e3       	ldi	r24, 0x35	; 53
     2a4:	9e d5       	rcall	.+2876   	; 0xde2 <pinMode>
	pinMode(self->leds->clock_pin, OUTPUT);
     2a6:	ea 81       	ldd	r30, Y+2	; 0x02
     2a8:	fb 81       	ldd	r31, Y+3	; 0x03
     2aa:	61 e0       	ldi	r22, 0x01	; 1
     2ac:	82 81       	ldd	r24, Z+2	; 0x02
     2ae:	99 d5       	rcall	.+2866   	; 0xde2 <pinMode>
	pinMode(self->leds->latch_pin, OUTPUT);
     2b0:	ea 81       	ldd	r30, Y+2	; 0x02
     2b2:	fb 81       	ldd	r31, Y+3	; 0x03
     2b4:	61 e0       	ldi	r22, 0x01	; 1
     2b6:	84 81       	ldd	r24, Z+4	; 0x04
	pinMode(self->switches->interrupt_pin, OUTPUT);
     2b8:	94 d5       	rcall	.+2856   	; 0xde2 <pinMode>
     2ba:	e8 81       	ld	r30, Y
     2bc:	f9 81       	ldd	r31, Y+1	; 0x01
     2be:	61 e0       	ldi	r22, 0x01	; 1
     2c0:	81 81       	ldd	r24, Z+1	; 0x01

	attachInterrupt(self->switches->interrupt_pin, controller_interrupt_buttons, RISING);
     2c2:	8f d5       	rcall	.+2846   	; 0xde2 <pinMode>
     2c4:	e8 81       	ld	r30, Y
     2c6:	f9 81       	ldd	r31, Y+1	; 0x01
     2c8:	43 e0       	ldi	r20, 0x03	; 3
     2ca:	50 e0       	ldi	r21, 0x00	; 0
     2cc:	6e e2       	ldi	r22, 0x2E	; 46
     2ce:	71 e0       	ldi	r23, 0x01	; 1
     2d0:	81 81       	ldd	r24, Z+1	; 0x01
  
	self->lcd = lcd_get(8, 9, 4, 5, 6, 7);
     2d2:	52 d2       	rcall	.+1188   	; 0x778 <attachInterrupt>
     2d4:	87 e0       	ldi	r24, 0x07	; 7
     2d6:	e8 2e       	mov	r14, r24
     2d8:	06 e0       	ldi	r16, 0x06	; 6
     2da:	25 e0       	ldi	r18, 0x05	; 5
     2dc:	44 e0       	ldi	r20, 0x04	; 4
     2de:	69 e0       	ldi	r22, 0x09	; 9
     2e0:	88 e0       	ldi	r24, 0x08	; 8
	lcd_begin(self->lcd, 16, 2);
     2e2:	d0 d1       	rcall	.+928    	; 0x684 <lcd_get>
     2e4:	9d 83       	std	Y+5, r25	; 0x05
     2e6:	8c 83       	std	Y+4, r24	; 0x04
	lcd_set_cursor(self->lcd, 0, 0);
     2e8:	42 e0       	ldi	r20, 0x02	; 2
     2ea:	60 e1       	ldi	r22, 0x10	; 16
     2ec:	ee d1       	rcall	.+988    	; 0x6ca <lcd_begin>
     2ee:	40 e0       	ldi	r20, 0x00	; 0
	lcd_print(self->lcd, "RC Controller");
     2f0:	60 e0       	ldi	r22, 0x00	; 0
     2f2:	8c 81       	ldd	r24, Y+4	; 0x04
     2f4:	9d 81       	ldd	r25, Y+5	; 0x05
     2f6:	ec d1       	rcall	.+984    	; 0x6d0 <lcd_set_cursor>
	lcd_set_cursor(self->lcd, 0, 1);
     2f8:	6c e2       	ldi	r22, 0x2C	; 44
     2fa:	72 e0       	ldi	r23, 0x02	; 2
     2fc:	8c 81       	ldd	r24, Y+4	; 0x04
     2fe:	9d 81       	ldd	r25, Y+5	; 0x05
     300:	e8 d1       	rcall	.+976    	; 0x6d2 <lcd_print>
	lcd_print(self->lcd, "ver. 1.0");
     302:	41 e0       	ldi	r20, 0x01	; 1
     304:	60 e0       	ldi	r22, 0x00	; 0
     306:	8c 81       	ldd	r24, Y+4	; 0x04
     308:	9d 81       	ldd	r25, Y+5	; 0x05
    delay(2000);
     30a:	e2 d1       	rcall	.+964    	; 0x6d0 <lcd_set_cursor>
     30c:	6a e3       	ldi	r22, 0x3A	; 58
     30e:	72 e0       	ldi	r23, 0x02	; 2
     310:	8c 81       	ldd	r24, Y+4	; 0x04
	lcd_clear(self->lcd);
     312:	9d 81       	ldd	r25, Y+5	; 0x05
     314:	de d1       	rcall	.+956    	; 0x6d2 <lcd_print>
     316:	60 ed       	ldi	r22, 0xD0	; 208
	lcd_set_cursor(self->lcd, 0, 0);
     318:	77 e0       	ldi	r23, 0x07	; 7
     31a:	80 e0       	ldi	r24, 0x00	; 0
     31c:	90 e0       	ldi	r25, 0x00	; 0
     31e:	66 d4       	rcall	.+2252   	; 0xbec <delay>
     320:	8c 81       	ldd	r24, Y+4	; 0x04
	lcd_print(self->lcd, "Testing LEDs...");
     322:	9d 81       	ldd	r25, Y+5	; 0x05
     324:	d4 d1       	rcall	.+936    	; 0x6ce <lcd_clear>
     326:	40 e0       	ldi	r20, 0x00	; 0
     328:	60 e0       	ldi	r22, 0x00	; 0
     32a:	8c 81       	ldd	r24, Y+4	; 0x04
    //Testing controller info leds
    led_shift_register_test(self->leds);
     32c:	9d 81       	ldd	r25, Y+5	; 0x05
     32e:	d0 d1       	rcall	.+928    	; 0x6d0 <lcd_set_cursor>
     330:	63 e4       	ldi	r22, 0x43	; 67
     332:	72 e0       	ldi	r23, 0x02	; 2
	lcd_clear(self->lcd);
     334:	8c 81       	ldd	r24, Y+4	; 0x04
     336:	9d 81       	ldd	r25, Y+5	; 0x05
     338:	cc d1       	rcall	.+920    	; 0x6d2 <lcd_print>
     33a:	8a 81       	ldd	r24, Y+2	; 0x02
	lcd_print(self->lcd, "WELCOME");
     33c:	9b 81       	ldd	r25, Y+3	; 0x03
     33e:	25 d0       	rcall	.+74     	; 0x38a <led_shift_register_test>
     340:	8c 81       	ldd	r24, Y+4	; 0x04
     342:	9d 81       	ldd	r25, Y+5	; 0x05
}
     344:	c4 d1       	rcall	.+904    	; 0x6ce <lcd_clear>
     346:	63 e5       	ldi	r22, 0x53	; 83
     348:	72 e0       	ldi	r23, 0x02	; 2
     34a:	8c 81       	ldd	r24, Y+4	; 0x04
	lcd_set_cursor(self->lcd, 0, 0);
	lcd_print(self->lcd, "Testing LEDs...");
    //Testing controller info leds
    led_shift_register_test(self->leds);
	lcd_clear(self->lcd);
	lcd_print(self->lcd, "WELCOME");
     34c:	9d 81       	ldd	r25, Y+5	; 0x05
     34e:	df 91       	pop	r29
     350:	cf 91       	pop	r28
     352:	0f 91       	pop	r16
     354:	ef 90       	pop	r14
     356:	bd c1       	rjmp	.+890    	; 0x6d2 <lcd_print>

00000358 <led_shift_register_write>:
  shift_register->led_state = shift_register->led_state & (!(short)led);
  led_shift_register_write(shift_register, shift_register->led_state);
}

void led_shift_register_write(led_shift_register *shift_register, short value)
{
     358:	1f 93       	push	r17
     35a:	cf 93       	push	r28
     35c:	df 93       	push	r29
     35e:	ec 01       	movw	r28, r24
     360:	16 2f       	mov	r17, r22
    digitalWrite(shift_register->latch_pin, LOW);
     362:	60 e0       	ldi	r22, 0x00	; 0
     364:	8c 81       	ldd	r24, Y+4	; 0x04
     366:	79 d5       	rcall	.+2802   	; 0xe5a <digitalWrite>
    shiftOut(shift_register->data_pin, shift_register->clock_pin, MSBFIRST, value);
     368:	21 2f       	mov	r18, r17
     36a:	41 e0       	ldi	r20, 0x01	; 1
     36c:	6a 81       	ldd	r22, Y+2	; 0x02
     36e:	88 81       	ld	r24, Y
     370:	a2 d5       	rcall	.+2884   	; 0xeb6 <shiftOut>
    digitalWrite(shift_register->latch_pin, HIGH);
     372:	61 e0       	ldi	r22, 0x01	; 1
     374:	8c 81       	ldd	r24, Y+4	; 0x04
     376:	df 91       	pop	r29
     378:	cf 91       	pop	r28

void led_shift_register_write(led_shift_register *shift_register, short value)
{
    digitalWrite(shift_register->latch_pin, LOW);
    shiftOut(shift_register->data_pin, shift_register->clock_pin, MSBFIRST, value);
    digitalWrite(shift_register->latch_pin, HIGH);
     37a:	1f 91       	pop	r17
     37c:	6e c5       	rjmp	.+2780   	; 0xe5a <digitalWrite>

0000037e <led_shift_register_reset>:
    led_shift_register_reset(shift_register);
}

void led_shift_register_reset(led_shift_register *shift_register)
{
    shift_register->led_state = 0;
     37e:	fc 01       	movw	r30, r24
     380:	17 82       	std	Z+7, r1	; 0x07
     382:	16 82       	std	Z+6, r1	; 0x06
    led_shift_register_write(shift_register, shift_register->led_state);
     384:	60 e0       	ldi	r22, 0x00	; 0
     386:	70 e0       	ldi	r23, 0x00	; 0
     388:	e7 cf       	rjmp	.-50     	; 0x358 <led_shift_register_write>

0000038a <led_shift_register_test>:

static void led_shift_register_write(led_shift_register *, short);


void led_shift_register_test(led_shift_register *shift_register)
{
     38a:	cf 93       	push	r28
     38c:	df 93       	push	r29
     38e:	ec 01       	movw	r28, r24
	shift_register->led_state = 1;
     390:	81 e0       	ldi	r24, 0x01	; 1
     392:	90 e0       	ldi	r25, 0x00	; 0
    for(shift_register->led_state; shift_register->led_state <= 128; shift_register->led_state = shift_register->led_state * 2)
     394:	9f 83       	std	Y+7, r25	; 0x07
     396:	8e 83       	std	Y+6, r24	; 0x06
     398:	6e 81       	ldd	r22, Y+6	; 0x06
     39a:	7f 81       	ldd	r23, Y+7	; 0x07
    {
      led_shift_register_write(shift_register, shift_register->led_state);
     39c:	ce 01       	movw	r24, r28


void led_shift_register_test(led_shift_register *shift_register)
{
	shift_register->led_state = 1;
    for(shift_register->led_state; shift_register->led_state <= 128; shift_register->led_state = shift_register->led_state * 2)
     39e:	61 38       	cpi	r22, 0x81	; 129
     3a0:	71 05       	cpc	r23, r1
    {
      led_shift_register_write(shift_register, shift_register->led_state);
     3a2:	5c f4       	brge	.+22     	; 0x3ba <led_shift_register_test+0x30>
	  delay(200);
     3a4:	d9 df       	rcall	.-78     	; 0x358 <led_shift_register_write>
     3a6:	68 ec       	ldi	r22, 0xC8	; 200
     3a8:	70 e0       	ldi	r23, 0x00	; 0
     3aa:	80 e0       	ldi	r24, 0x00	; 0
     3ac:	90 e0       	ldi	r25, 0x00	; 0


void led_shift_register_test(led_shift_register *shift_register)
{
	shift_register->led_state = 1;
    for(shift_register->led_state; shift_register->led_state <= 128; shift_register->led_state = shift_register->led_state * 2)
     3ae:	1e d4       	rcall	.+2108   	; 0xbec <delay>
     3b0:	8e 81       	ldd	r24, Y+6	; 0x06
     3b2:	9f 81       	ldd	r25, Y+7	; 0x07
     3b4:	88 0f       	add	r24, r24
      led_shift_register_write(shift_register, shift_register->led_state);
	  delay(200);
    }
    
    led_shift_register_reset(shift_register);
}
     3b6:	99 1f       	adc	r25, r25
    {
      led_shift_register_write(shift_register, shift_register->led_state);
	  delay(200);
    }
    
    led_shift_register_reset(shift_register);
     3b8:	ed cf       	rjmp	.-38     	; 0x394 <led_shift_register_test+0xa>
     3ba:	df 91       	pop	r29
     3bc:	cf 91       	pop	r28
     3be:	df cf       	rjmp	.-66     	; 0x37e <led_shift_register_reset>

000003c0 <_ZN13LiquidCrystal11pulseEnableEv>:
  location &= 0x7; // we only have 8 locations 0-7
  command(LCD_SETCGRAMADDR | (location << 3));
  for (int i=0; i<8; i++) {
    write(charmap[i]);
  }
}
     3c0:	cf 93       	push	r28
     3c2:	df 93       	push	r29
     3c4:	ec 01       	movw	r28, r24
     3c6:	60 e0       	ldi	r22, 0x00	; 0
     3c8:	8e 81       	ldd	r24, Y+6	; 0x06
     3ca:	47 d5       	rcall	.+2702   	; 0xe5a <digitalWrite>
     3cc:	81 e0       	ldi	r24, 0x01	; 1
     3ce:	90 e0       	ldi	r25, 0x00	; 0
     3d0:	46 d4       	rcall	.+2188   	; 0xc5e <delayMicroseconds>
     3d2:	61 e0       	ldi	r22, 0x01	; 1
     3d4:	8e 81       	ldd	r24, Y+6	; 0x06
     3d6:	41 d5       	rcall	.+2690   	; 0xe5a <digitalWrite>
     3d8:	81 e0       	ldi	r24, 0x01	; 1
     3da:	90 e0       	ldi	r25, 0x00	; 0
     3dc:	40 d4       	rcall	.+2176   	; 0xc5e <delayMicroseconds>
     3de:	60 e0       	ldi	r22, 0x00	; 0
     3e0:	8e 81       	ldd	r24, Y+6	; 0x06
     3e2:	3b d5       	rcall	.+2678   	; 0xe5a <digitalWrite>
     3e4:	84 e6       	ldi	r24, 0x64	; 100
     3e6:	90 e0       	ldi	r25, 0x00	; 0
     3e8:	df 91       	pop	r29
     3ea:	cf 91       	pop	r28
     3ec:	38 c4       	rjmp	.+2160   	; 0xc5e <delayMicroseconds>

000003ee <_ZN13LiquidCrystal10write4bitsEh>:
     3ee:	cf 92       	push	r12
     3f0:	df 92       	push	r13
     3f2:	ef 92       	push	r14
     3f4:	ff 92       	push	r15
     3f6:	0f 93       	push	r16
     3f8:	1f 93       	push	r17
     3fa:	cf 93       	push	r28
     3fc:	df 93       	push	r29
     3fe:	6c 01       	movw	r12, r24
     400:	7c 01       	movw	r14, r24
     402:	87 e0       	ldi	r24, 0x07	; 7
     404:	e8 0e       	add	r14, r24
     406:	f1 1c       	adc	r15, r1
     408:	c0 e0       	ldi	r28, 0x00	; 0
     40a:	d0 e0       	ldi	r29, 0x00	; 0
     40c:	06 2f       	mov	r16, r22
     40e:	10 e0       	ldi	r17, 0x00	; 0
     410:	b8 01       	movw	r22, r16
     412:	0c 2e       	mov	r0, r28
     414:	02 c0       	rjmp	.+4      	; 0x41a <__LOCK_REGION_LENGTH__+0x1a>
     416:	75 95       	asr	r23
     418:	67 95       	ror	r22
     41a:	0a 94       	dec	r0
     41c:	e2 f7       	brpl	.-8      	; 0x416 <__LOCK_REGION_LENGTH__+0x16>
     41e:	61 70       	andi	r22, 0x01	; 1
     420:	f7 01       	movw	r30, r14
     422:	81 91       	ld	r24, Z+
     424:	7f 01       	movw	r14, r30
     426:	19 d5       	rcall	.+2610   	; 0xe5a <digitalWrite>
     428:	21 96       	adiw	r28, 0x01	; 1
     42a:	c4 30       	cpi	r28, 0x04	; 4
     42c:	d1 05       	cpc	r29, r1
     42e:	81 f7       	brne	.-32     	; 0x410 <__LOCK_REGION_LENGTH__+0x10>
     430:	c6 01       	movw	r24, r12
     432:	df 91       	pop	r29
     434:	cf 91       	pop	r28
     436:	1f 91       	pop	r17
     438:	0f 91       	pop	r16
     43a:	ff 90       	pop	r15
     43c:	ef 90       	pop	r14
     43e:	df 90       	pop	r13
     440:	cf 90       	pop	r12
     442:	be cf       	rjmp	.-132    	; 0x3c0 <_ZN13LiquidCrystal11pulseEnableEv>

00000444 <_ZN13LiquidCrystal10write8bitsEh>:
     444:	cf 92       	push	r12
     446:	df 92       	push	r13
     448:	ef 92       	push	r14
     44a:	ff 92       	push	r15
     44c:	0f 93       	push	r16
     44e:	1f 93       	push	r17
     450:	cf 93       	push	r28
     452:	df 93       	push	r29
     454:	6c 01       	movw	r12, r24
     456:	7c 01       	movw	r14, r24
     458:	87 e0       	ldi	r24, 0x07	; 7
     45a:	e8 0e       	add	r14, r24
     45c:	f1 1c       	adc	r15, r1
     45e:	c0 e0       	ldi	r28, 0x00	; 0
     460:	d0 e0       	ldi	r29, 0x00	; 0
     462:	06 2f       	mov	r16, r22
     464:	10 e0       	ldi	r17, 0x00	; 0
     466:	b8 01       	movw	r22, r16
     468:	0c 2e       	mov	r0, r28
     46a:	02 c0       	rjmp	.+4      	; 0x470 <_ZN13LiquidCrystal10write8bitsEh+0x2c>
     46c:	75 95       	asr	r23
     46e:	67 95       	ror	r22
     470:	0a 94       	dec	r0
     472:	e2 f7       	brpl	.-8      	; 0x46c <_ZN13LiquidCrystal10write8bitsEh+0x28>
     474:	61 70       	andi	r22, 0x01	; 1
     476:	f7 01       	movw	r30, r14
     478:	81 91       	ld	r24, Z+
     47a:	7f 01       	movw	r14, r30
     47c:	ee d4       	rcall	.+2524   	; 0xe5a <digitalWrite>
     47e:	21 96       	adiw	r28, 0x01	; 1
     480:	c8 30       	cpi	r28, 0x08	; 8
     482:	d1 05       	cpc	r29, r1
     484:	81 f7       	brne	.-32     	; 0x466 <_ZN13LiquidCrystal10write8bitsEh+0x22>
     486:	c6 01       	movw	r24, r12
     488:	df 91       	pop	r29
     48a:	cf 91       	pop	r28
     48c:	1f 91       	pop	r17
     48e:	0f 91       	pop	r16
     490:	ff 90       	pop	r15
     492:	ef 90       	pop	r14
     494:	df 90       	pop	r13
     496:	cf 90       	pop	r12
     498:	93 cf       	rjmp	.-218    	; 0x3c0 <_ZN13LiquidCrystal11pulseEnableEv>

0000049a <_ZN13LiquidCrystal4sendEhh>:
     49a:	1f 93       	push	r17
     49c:	cf 93       	push	r28
     49e:	df 93       	push	r29
     4a0:	ec 01       	movw	r28, r24
     4a2:	16 2f       	mov	r17, r22
     4a4:	64 2f       	mov	r22, r20
     4a6:	8c 81       	ldd	r24, Y+4	; 0x04
     4a8:	d8 d4       	rcall	.+2480   	; 0xe5a <digitalWrite>
     4aa:	8d 81       	ldd	r24, Y+5	; 0x05
     4ac:	8f 3f       	cpi	r24, 0xFF	; 255
     4ae:	11 f0       	breq	.+4      	; 0x4b4 <_ZN13LiquidCrystal4sendEhh+0x1a>
     4b0:	60 e0       	ldi	r22, 0x00	; 0
     4b2:	d3 d4       	rcall	.+2470   	; 0xe5a <digitalWrite>
     4b4:	8f 85       	ldd	r24, Y+15	; 0x0f
     4b6:	61 2f       	mov	r22, r17
     4b8:	84 ff       	sbrs	r24, 4
     4ba:	05 c0       	rjmp	.+10     	; 0x4c6 <_ZN13LiquidCrystal4sendEhh+0x2c>
     4bc:	ce 01       	movw	r24, r28
     4be:	df 91       	pop	r29
     4c0:	cf 91       	pop	r28
     4c2:	1f 91       	pop	r17
     4c4:	bf cf       	rjmp	.-130    	; 0x444 <_ZN13LiquidCrystal10write8bitsEh>
     4c6:	70 e0       	ldi	r23, 0x00	; 0
     4c8:	84 e0       	ldi	r24, 0x04	; 4
     4ca:	75 95       	asr	r23
     4cc:	67 95       	ror	r22
     4ce:	8a 95       	dec	r24
     4d0:	e1 f7       	brne	.-8      	; 0x4ca <_ZN13LiquidCrystal4sendEhh+0x30>
     4d2:	ce 01       	movw	r24, r28
     4d4:	8c df       	rcall	.-232    	; 0x3ee <_ZN13LiquidCrystal10write4bitsEh>
     4d6:	61 2f       	mov	r22, r17
     4d8:	ce 01       	movw	r24, r28
     4da:	df 91       	pop	r29
     4dc:	cf 91       	pop	r28
     4de:	1f 91       	pop	r17
     4e0:	86 cf       	rjmp	.-244    	; 0x3ee <_ZN13LiquidCrystal10write4bitsEh>

000004e2 <_ZN13LiquidCrystal7commandEh>:
     4e2:	40 e0       	ldi	r20, 0x00	; 0
     4e4:	da cf       	rjmp	.-76     	; 0x49a <_ZN13LiquidCrystal4sendEhh>

000004e6 <_ZN13LiquidCrystal5clearEv>:
     4e6:	61 e0       	ldi	r22, 0x01	; 1
     4e8:	fc df       	rcall	.-8      	; 0x4e2 <_ZN13LiquidCrystal7commandEh>
     4ea:	80 ed       	ldi	r24, 0xD0	; 208
     4ec:	97 e0       	ldi	r25, 0x07	; 7
     4ee:	b7 c3       	rjmp	.+1902   	; 0xc5e <delayMicroseconds>

000004f0 <_ZN13LiquidCrystal9setCursorEhh>:
     4f0:	fc 01       	movw	r30, r24
     4f2:	44 30       	cpi	r20, 0x04	; 4
     4f4:	08 f0       	brcs	.+2      	; 0x4f8 <_ZN13LiquidCrystal9setCursorEhh+0x8>
     4f6:	43 e0       	ldi	r20, 0x03	; 3
     4f8:	83 89       	ldd	r24, Z+19	; 0x13
     4fa:	48 17       	cp	r20, r24
     4fc:	10 f0       	brcs	.+4      	; 0x502 <_ZN13LiquidCrystal9setCursorEhh+0x12>
     4fe:	4f ef       	ldi	r20, 0xFF	; 255
     500:	48 0f       	add	r20, r24
     502:	df 01       	movw	r26, r30
     504:	a4 0f       	add	r26, r20
     506:	b1 1d       	adc	r27, r1
     508:	54 96       	adiw	r26, 0x14	; 20
     50a:	9c 91       	ld	r25, X
     50c:	69 0f       	add	r22, r25
     50e:	60 68       	ori	r22, 0x80	; 128
     510:	cf 01       	movw	r24, r30
     512:	e7 cf       	rjmp	.-50     	; 0x4e2 <_ZN13LiquidCrystal7commandEh>

00000514 <_ZN13LiquidCrystal7displayEv>:
     514:	fc 01       	movw	r30, r24
     516:	60 89       	ldd	r22, Z+16	; 0x10
     518:	26 2f       	mov	r18, r22
     51a:	24 60       	ori	r18, 0x04	; 4
     51c:	20 8b       	std	Z+16, r18	; 0x10
     51e:	6c 60       	ori	r22, 0x0C	; 12
     520:	e0 cf       	rjmp	.-64     	; 0x4e2 <_ZN13LiquidCrystal7commandEh>

00000522 <_ZN13LiquidCrystal5beginEhhh>:
     522:	ef 92       	push	r14
     524:	ff 92       	push	r15
     526:	0f 93       	push	r16
     528:	1f 93       	push	r17
     52a:	cf 93       	push	r28
     52c:	df 93       	push	r29
     52e:	ec 01       	movw	r28, r24
     530:	42 30       	cpi	r20, 0x02	; 2
     532:	18 f0       	brcs	.+6      	; 0x53a <_ZN13LiquidCrystal5beginEhhh+0x18>
     534:	8f 85       	ldd	r24, Y+15	; 0x0f
     536:	88 60       	ori	r24, 0x08	; 8
     538:	8f 87       	std	Y+15, r24	; 0x0f
     53a:	4b 8b       	std	Y+19, r20	; 0x13
     53c:	1c 8a       	std	Y+20, r1	; 0x14
     53e:	80 e4       	ldi	r24, 0x40	; 64
     540:	8d 8b       	std	Y+21, r24	; 0x15
     542:	6e 8b       	std	Y+22, r22	; 0x16
     544:	70 e0       	ldi	r23, 0x00	; 0
     546:	60 5c       	subi	r22, 0xC0	; 192
     548:	7f 4f       	sbci	r23, 0xFF	; 255
     54a:	6f 8b       	std	Y+23, r22	; 0x17
     54c:	22 23       	and	r18, r18
     54e:	29 f0       	breq	.+10     	; 0x55a <_ZN13LiquidCrystal5beginEhhh+0x38>
     550:	41 30       	cpi	r20, 0x01	; 1
     552:	19 f4       	brne	.+6      	; 0x55a <_ZN13LiquidCrystal5beginEhhh+0x38>
     554:	8f 85       	ldd	r24, Y+15	; 0x0f
     556:	84 60       	ori	r24, 0x04	; 4
     558:	8f 87       	std	Y+15, r24	; 0x0f
     55a:	61 e0       	ldi	r22, 0x01	; 1
     55c:	8c 81       	ldd	r24, Y+4	; 0x04
     55e:	41 d4       	rcall	.+2178   	; 0xde2 <pinMode>
     560:	8d 81       	ldd	r24, Y+5	; 0x05
     562:	8f 3f       	cpi	r24, 0xFF	; 255
     564:	11 f0       	breq	.+4      	; 0x56a <_ZN13LiquidCrystal5beginEhhh+0x48>
     566:	61 e0       	ldi	r22, 0x01	; 1
     568:	3c d4       	rcall	.+2168   	; 0xde2 <pinMode>
     56a:	61 e0       	ldi	r22, 0x01	; 1
     56c:	8e 81       	ldd	r24, Y+6	; 0x06
     56e:	39 d4       	rcall	.+2162   	; 0xde2 <pinMode>
     570:	7e 01       	movw	r14, r28
     572:	87 e0       	ldi	r24, 0x07	; 7
     574:	e8 0e       	add	r14, r24
     576:	f1 1c       	adc	r15, r1
     578:	00 e0       	ldi	r16, 0x00	; 0
     57a:	10 e0       	ldi	r17, 0x00	; 0
     57c:	8f 85       	ldd	r24, Y+15	; 0x0f
     57e:	84 fd       	sbrc	r24, 4
     580:	03 c0       	rjmp	.+6      	; 0x588 <_ZN13LiquidCrystal5beginEhhh+0x66>
     582:	84 e0       	ldi	r24, 0x04	; 4
     584:	90 e0       	ldi	r25, 0x00	; 0
     586:	02 c0       	rjmp	.+4      	; 0x58c <_ZN13LiquidCrystal5beginEhhh+0x6a>
     588:	88 e0       	ldi	r24, 0x08	; 8
     58a:	90 e0       	ldi	r25, 0x00	; 0
     58c:	08 17       	cp	r16, r24
     58e:	19 07       	cpc	r17, r25
     590:	44 f4       	brge	.+16     	; 0x5a2 <_ZN13LiquidCrystal5beginEhhh+0x80>
     592:	61 e0       	ldi	r22, 0x01	; 1
     594:	f7 01       	movw	r30, r14
     596:	81 91       	ld	r24, Z+
     598:	7f 01       	movw	r14, r30
     59a:	23 d4       	rcall	.+2118   	; 0xde2 <pinMode>
     59c:	0f 5f       	subi	r16, 0xFF	; 255
     59e:	1f 4f       	sbci	r17, 0xFF	; 255
     5a0:	ed cf       	rjmp	.-38     	; 0x57c <_ZN13LiquidCrystal5beginEhhh+0x5a>
     5a2:	80 e5       	ldi	r24, 0x50	; 80
     5a4:	93 ec       	ldi	r25, 0xC3	; 195
     5a6:	5b d3       	rcall	.+1718   	; 0xc5e <delayMicroseconds>
     5a8:	60 e0       	ldi	r22, 0x00	; 0
     5aa:	8c 81       	ldd	r24, Y+4	; 0x04
     5ac:	56 d4       	rcall	.+2220   	; 0xe5a <digitalWrite>
     5ae:	60 e0       	ldi	r22, 0x00	; 0
     5b0:	8e 81       	ldd	r24, Y+6	; 0x06
     5b2:	53 d4       	rcall	.+2214   	; 0xe5a <digitalWrite>
     5b4:	8d 81       	ldd	r24, Y+5	; 0x05
     5b6:	8f 3f       	cpi	r24, 0xFF	; 255
     5b8:	11 f0       	breq	.+4      	; 0x5be <_ZN13LiquidCrystal5beginEhhh+0x9c>
     5ba:	60 e0       	ldi	r22, 0x00	; 0
     5bc:	4e d4       	rcall	.+2204   	; 0xe5a <digitalWrite>
     5be:	6f 85       	ldd	r22, Y+15	; 0x0f
     5c0:	64 fd       	sbrc	r22, 4
     5c2:	16 c0       	rjmp	.+44     	; 0x5f0 <_ZN13LiquidCrystal5beginEhhh+0xce>
     5c4:	63 e0       	ldi	r22, 0x03	; 3
     5c6:	ce 01       	movw	r24, r28
     5c8:	12 df       	rcall	.-476    	; 0x3ee <_ZN13LiquidCrystal10write4bitsEh>
     5ca:	84 e9       	ldi	r24, 0x94	; 148
     5cc:	91 e1       	ldi	r25, 0x11	; 17
     5ce:	47 d3       	rcall	.+1678   	; 0xc5e <delayMicroseconds>
     5d0:	63 e0       	ldi	r22, 0x03	; 3
     5d2:	ce 01       	movw	r24, r28
     5d4:	0c df       	rcall	.-488    	; 0x3ee <_ZN13LiquidCrystal10write4bitsEh>
     5d6:	84 e9       	ldi	r24, 0x94	; 148
     5d8:	91 e1       	ldi	r25, 0x11	; 17
     5da:	41 d3       	rcall	.+1666   	; 0xc5e <delayMicroseconds>
     5dc:	63 e0       	ldi	r22, 0x03	; 3
     5de:	ce 01       	movw	r24, r28
     5e0:	06 df       	rcall	.-500    	; 0x3ee <_ZN13LiquidCrystal10write4bitsEh>
     5e2:	86 e9       	ldi	r24, 0x96	; 150
     5e4:	90 e0       	ldi	r25, 0x00	; 0
     5e6:	3b d3       	rcall	.+1654   	; 0xc5e <delayMicroseconds>
     5e8:	62 e0       	ldi	r22, 0x02	; 2
     5ea:	ce 01       	movw	r24, r28
     5ec:	00 df       	rcall	.-512    	; 0x3ee <_ZN13LiquidCrystal10write4bitsEh>
     5ee:	11 c0       	rjmp	.+34     	; 0x612 <_ZN13LiquidCrystal5beginEhhh+0xf0>
     5f0:	60 62       	ori	r22, 0x20	; 32
     5f2:	ce 01       	movw	r24, r28
     5f4:	76 df       	rcall	.-276    	; 0x4e2 <_ZN13LiquidCrystal7commandEh>
     5f6:	84 e9       	ldi	r24, 0x94	; 148
     5f8:	91 e1       	ldi	r25, 0x11	; 17
     5fa:	31 d3       	rcall	.+1634   	; 0xc5e <delayMicroseconds>
     5fc:	6f 85       	ldd	r22, Y+15	; 0x0f
     5fe:	60 62       	ori	r22, 0x20	; 32
     600:	ce 01       	movw	r24, r28
     602:	6f df       	rcall	.-290    	; 0x4e2 <_ZN13LiquidCrystal7commandEh>
     604:	86 e9       	ldi	r24, 0x96	; 150
     606:	90 e0       	ldi	r25, 0x00	; 0
     608:	2a d3       	rcall	.+1620   	; 0xc5e <delayMicroseconds>
     60a:	6f 85       	ldd	r22, Y+15	; 0x0f
     60c:	60 62       	ori	r22, 0x20	; 32
     60e:	ce 01       	movw	r24, r28
     610:	68 df       	rcall	.-304    	; 0x4e2 <_ZN13LiquidCrystal7commandEh>
     612:	6f 85       	ldd	r22, Y+15	; 0x0f
     614:	60 62       	ori	r22, 0x20	; 32
     616:	ce 01       	movw	r24, r28
     618:	64 df       	rcall	.-312    	; 0x4e2 <_ZN13LiquidCrystal7commandEh>
     61a:	84 e0       	ldi	r24, 0x04	; 4
     61c:	88 8b       	std	Y+16, r24	; 0x10
     61e:	ce 01       	movw	r24, r28
     620:	79 df       	rcall	.-270    	; 0x514 <_ZN13LiquidCrystal7displayEv>
     622:	ce 01       	movw	r24, r28
     624:	60 df       	rcall	.-320    	; 0x4e6 <_ZN13LiquidCrystal5clearEv>
     626:	82 e0       	ldi	r24, 0x02	; 2
     628:	89 8b       	std	Y+17, r24	; 0x11
     62a:	66 e0       	ldi	r22, 0x06	; 6
     62c:	ce 01       	movw	r24, r28
     62e:	df 91       	pop	r29
     630:	cf 91       	pop	r28
     632:	1f 91       	pop	r17
     634:	0f 91       	pop	r16
     636:	ff 90       	pop	r15
     638:	ef 90       	pop	r14
     63a:	53 cf       	rjmp	.-346    	; 0x4e2 <_ZN13LiquidCrystal7commandEh>

0000063c <_ZN13LiquidCrystalC1Ehhhhhh>:
     63c:	cf 92       	push	r12
     63e:	ef 92       	push	r14
     640:	0f 93       	push	r16
     642:	fc 01       	movw	r30, r24
     644:	13 82       	std	Z+3, r1	; 0x03
     646:	12 82       	std	Z+2, r1	; 0x02
     648:	8f e5       	ldi	r24, 0x5F	; 95
     64a:	92 e0       	ldi	r25, 0x02	; 2
     64c:	91 83       	std	Z+1, r25	; 0x01
     64e:	80 83       	st	Z, r24
     650:	64 83       	std	Z+4, r22	; 0x04
     652:	8f ef       	ldi	r24, 0xFF	; 255
     654:	85 83       	std	Z+5, r24	; 0x05
     656:	46 83       	std	Z+6, r20	; 0x06
     658:	27 83       	std	Z+7, r18	; 0x07
     65a:	00 87       	std	Z+8, r16	; 0x08
     65c:	e1 86       	std	Z+9, r14	; 0x09
     65e:	c2 86       	std	Z+10, r12	; 0x0a
     660:	13 86       	std	Z+11, r1	; 0x0b
     662:	14 86       	std	Z+12, r1	; 0x0c
     664:	15 86       	std	Z+13, r1	; 0x0d
     666:	16 86       	std	Z+14, r1	; 0x0e
     668:	17 86       	std	Z+15, r1	; 0x0f
     66a:	20 e0       	ldi	r18, 0x00	; 0
     66c:	41 e0       	ldi	r20, 0x01	; 1
     66e:	60 e1       	ldi	r22, 0x10	; 16
     670:	cf 01       	movw	r24, r30
     672:	0f 91       	pop	r16
     674:	ef 90       	pop	r14
     676:	cf 90       	pop	r12
     678:	54 cf       	rjmp	.-344    	; 0x522 <_ZN13LiquidCrystal5beginEhhh>

0000067a <_ZN13LiquidCrystal5writeEh>:
inline void LiquidCrystal::command(uint8_t value) {
  send(value, LOW);
}

inline size_t LiquidCrystal::write(uint8_t value) {
  send(value, HIGH);
     67a:	41 e0       	ldi	r20, 0x01	; 1
     67c:	0e df       	rcall	.-484    	; 0x49a <_ZN13LiquidCrystal4sendEhh>
  return 1; // assume sucess
}
     67e:	81 e0       	ldi	r24, 0x01	; 1
     680:	90 e0       	ldi	r25, 0x00	; 0
     682:	08 95       	ret

00000684 <lcd_get>:
		return new LiquidCrystal(rs, enable, d0, d1, d2, d3);
	 }

	 void lcd_free(LiquidCrystal * lcd)
	 {
		delete lcd;
     684:	bf 92       	push	r11
     686:	cf 92       	push	r12
     688:	df 92       	push	r13
     68a:	ef 92       	push	r14
     68c:	ff 92       	push	r15
     68e:	0f 93       	push	r16
     690:	1f 93       	push	r17
     692:	cf 93       	push	r28
     694:	df 93       	push	r29
     696:	18 2f       	mov	r17, r24
     698:	f6 2e       	mov	r15, r22
     69a:	d4 2e       	mov	r13, r20
     69c:	b2 2e       	mov	r11, r18
     69e:	88 e1       	ldi	r24, 0x18	; 24
     6a0:	90 e0       	ldi	r25, 0x00	; 0
     6a2:	28 d0       	rcall	.+80     	; 0x6f4 <_Znwj>
     6a4:	ec 01       	movw	r28, r24
     6a6:	ce 2c       	mov	r12, r14
     6a8:	e0 2e       	mov	r14, r16
     6aa:	0b 2d       	mov	r16, r11
     6ac:	2d 2d       	mov	r18, r13
     6ae:	4f 2d       	mov	r20, r15
     6b0:	61 2f       	mov	r22, r17
     6b2:	c4 df       	rcall	.-120    	; 0x63c <_ZN13LiquidCrystalC1Ehhhhhh>
     6b4:	ce 01       	movw	r24, r28
     6b6:	df 91       	pop	r29
     6b8:	cf 91       	pop	r28
     6ba:	1f 91       	pop	r17
     6bc:	0f 91       	pop	r16
     6be:	ff 90       	pop	r15
     6c0:	ef 90       	pop	r14
     6c2:	df 90       	pop	r13
     6c4:	cf 90       	pop	r12
     6c6:	bf 90       	pop	r11
     6c8:	08 95       	ret

000006ca <lcd_begin>:
	 }

	 void lcd_begin(LiquidCrystal *lcd, uint8_t cols, uint8_t rows)
	 {
		lcd->begin(cols, rows);
     6ca:	20 e0       	ldi	r18, 0x00	; 0
     6cc:	2a cf       	rjmp	.-428    	; 0x522 <_ZN13LiquidCrystal5beginEhhh>

000006ce <lcd_clear>:
	 }

	 void lcd_clear(LiquidCrystal *lcd)
	 {
     6ce:	0b cf       	rjmp	.-490    	; 0x4e6 <_ZN13LiquidCrystal5clearEv>

000006d0 <lcd_set_cursor>:
     6d0:	0f cf       	rjmp	.-482    	; 0x4f0 <_ZN13LiquidCrystal9setCursorEhh>

000006d2 <lcd_print>:
     6d2:	50 c0       	rjmp	.+160    	; 0x774 <_ZN5Print5printEPKc>

000006d4 <setup>:

controller rc_controller;

void setup() {
  // put your setup code here, to run once:
  controller_initialize(&rc_controller);
     6d4:	8d e6       	ldi	r24, 0x6D	; 109
     6d6:	92 e0       	ldi	r25, 0x02	; 2
     6d8:	c2 cd       	rjmp	.-1148   	; 0x25e <controller_initialize>

000006da <loop>:
}

void loop() {
     6da:	08 95       	ret

000006dc <initVariant>:
     6dc:	08 95       	ret

000006de <main>:
     6de:	ca d2       	rcall	.+1428   	; 0xc74 <init>
     6e0:	fd df       	rcall	.-6      	; 0x6dc <initVariant>
     6e2:	f8 df       	rcall	.-16     	; 0x6d4 <setup>
     6e4:	c0 e0       	ldi	r28, 0x00	; 0
     6e6:	d0 e0       	ldi	r29, 0x00	; 0
     6e8:	f8 df       	rcall	.-16     	; 0x6da <loop>
     6ea:	20 97       	sbiw	r28, 0x00	; 0
     6ec:	e9 f3       	breq	.-6      	; 0x6e8 <main+0xa>
     6ee:	0e 94 00 00 	call	0	; 0x0 <__vectors>
     6f2:	fa cf       	rjmp	.-12     	; 0x6e8 <main+0xa>

000006f4 <_Znwj>:
     6f4:	1f c4       	rjmp	.+2110   	; 0xf34 <malloc>

000006f6 <_ZN5Print5writeEPKhj>:
     6f6:	cf 92       	push	r12
     6f8:	df 92       	push	r13
     6fa:	ef 92       	push	r14
     6fc:	ff 92       	push	r15
     6fe:	0f 93       	push	r16
     700:	1f 93       	push	r17
     702:	cf 93       	push	r28
     704:	df 93       	push	r29
     706:	6c 01       	movw	r12, r24
     708:	7a 01       	movw	r14, r20
     70a:	8b 01       	movw	r16, r22
     70c:	c0 e0       	ldi	r28, 0x00	; 0
     70e:	d0 e0       	ldi	r29, 0x00	; 0
     710:	ce 15       	cp	r28, r14
     712:	df 05       	cpc	r29, r15
     714:	81 f0       	breq	.+32     	; 0x736 <_ZN5Print5writeEPKhj+0x40>
     716:	d8 01       	movw	r26, r16
     718:	6d 91       	ld	r22, X+
     71a:	8d 01       	movw	r16, r26
     71c:	d6 01       	movw	r26, r12
     71e:	ed 91       	ld	r30, X+
     720:	fc 91       	ld	r31, X
     722:	01 90       	ld	r0, Z+
     724:	f0 81       	ld	r31, Z
     726:	e0 2d       	mov	r30, r0
     728:	c6 01       	movw	r24, r12
     72a:	19 95       	eicall
     72c:	89 2b       	or	r24, r25
     72e:	11 f0       	breq	.+4      	; 0x734 <_ZN5Print5writeEPKhj+0x3e>
     730:	21 96       	adiw	r28, 0x01	; 1
     732:	ee cf       	rjmp	.-36     	; 0x710 <_ZN5Print5writeEPKhj+0x1a>
     734:	7e 01       	movw	r14, r28
     736:	c7 01       	movw	r24, r14
     738:	df 91       	pop	r29
     73a:	cf 91       	pop	r28
     73c:	1f 91       	pop	r17
     73e:	0f 91       	pop	r16
     740:	ff 90       	pop	r15
     742:	ef 90       	pop	r14
     744:	df 90       	pop	r13
     746:	cf 90       	pop	r12
     748:	08 95       	ret

0000074a <_ZN5Print5writeEPKc>:
     74a:	61 15       	cp	r22, r1
     74c:	71 05       	cpc	r23, r1
     74e:	79 f0       	breq	.+30     	; 0x76e <_ZN5Print5writeEPKc+0x24>
     750:	fb 01       	movw	r30, r22
     752:	01 90       	ld	r0, Z+
     754:	00 20       	and	r0, r0
     756:	e9 f7       	brne	.-6      	; 0x752 <_ZN5Print5writeEPKc+0x8>
     758:	31 97       	sbiw	r30, 0x01	; 1
     75a:	af 01       	movw	r20, r30
     75c:	46 1b       	sub	r20, r22
     75e:	57 0b       	sbc	r21, r23
     760:	dc 01       	movw	r26, r24
     762:	ed 91       	ld	r30, X+
     764:	fc 91       	ld	r31, X
     766:	02 80       	ldd	r0, Z+2	; 0x02
     768:	f3 81       	ldd	r31, Z+3	; 0x03
     76a:	e0 2d       	mov	r30, r0
     76c:	19 94       	eijmp
     76e:	80 e0       	ldi	r24, 0x00	; 0
     770:	90 e0       	ldi	r25, 0x00	; 0
     772:	08 95       	ret

00000774 <_ZN5Print5printEPKc>:
     774:	ea cf       	rjmp	.-44     	; 0x74a <_ZN5Print5writeEPKc>

00000776 <nothing>:
    #endif
      break;       
#endif
    }
      
    intFunc[interruptNum] = nothing;
     776:	08 95       	ret

00000778 <attachInterrupt>:
     778:	88 30       	cpi	r24, 0x08	; 8
     77a:	08 f0       	brcs	.+2      	; 0x77e <attachInterrupt+0x6>
     77c:	6f c0       	rjmp	.+222    	; 0x85c <attachInterrupt+0xe4>
     77e:	a8 2f       	mov	r26, r24
     780:	b0 e0       	ldi	r27, 0x00	; 0
     782:	aa 0f       	add	r26, r26
     784:	bb 1f       	adc	r27, r27
     786:	a4 5e       	subi	r26, 0xE4	; 228
     788:	bd 4f       	sbci	r27, 0xFD	; 253
     78a:	11 96       	adiw	r26, 0x01	; 1
     78c:	7c 93       	st	X, r23
     78e:	6e 93       	st	-X, r22
     790:	90 e0       	ldi	r25, 0x00	; 0
     792:	fc 01       	movw	r30, r24
     794:	31 97       	sbiw	r30, 0x01	; 1
     796:	e7 30       	cpi	r30, 0x07	; 7
     798:	f1 05       	cpc	r31, r1
     79a:	98 f5       	brcc	.+102    	; 0x802 <attachInterrupt+0x8a>
     79c:	88 27       	eor	r24, r24
     79e:	ee 58       	subi	r30, 0x8E	; 142
     7a0:	ff 4f       	sbci	r31, 0xFF	; 255
     7a2:	8f 4f       	sbci	r24, 0xFF	; 255
     7a4:	bf c3       	rjmp	.+1918   	; 0xf24 <__tablejump2__>
     7a6:	80 91 69 00 	lds	r24, 0x0069	; 0x800069 <__TEXT_REGION_LENGTH__+0x700069>
     7aa:	8c 7f       	andi	r24, 0xFC	; 252
     7ac:	48 2b       	or	r20, r24
     7ae:	40 93 69 00 	sts	0x0069, r20	; 0x800069 <__TEXT_REGION_LENGTH__+0x700069>
     7b2:	e8 9a       	sbi	0x1d, 0	; 29
     7b4:	08 95       	ret
     7b6:	80 91 69 00 	lds	r24, 0x0069	; 0x800069 <__TEXT_REGION_LENGTH__+0x700069>
     7ba:	83 7f       	andi	r24, 0xF3	; 243
     7bc:	44 0f       	add	r20, r20
     7be:	55 1f       	adc	r21, r21
     7c0:	44 0f       	add	r20, r20
     7c2:	55 1f       	adc	r21, r21
     7c4:	48 2b       	or	r20, r24
     7c6:	40 93 69 00 	sts	0x0069, r20	; 0x800069 <__TEXT_REGION_LENGTH__+0x700069>
     7ca:	e9 9a       	sbi	0x1d, 1	; 29
     7cc:	08 95       	ret
     7ce:	80 91 69 00 	lds	r24, 0x0069	; 0x800069 <__TEXT_REGION_LENGTH__+0x700069>
     7d2:	8f 7c       	andi	r24, 0xCF	; 207
     7d4:	74 e0       	ldi	r23, 0x04	; 4
     7d6:	44 0f       	add	r20, r20
     7d8:	55 1f       	adc	r21, r21
     7da:	7a 95       	dec	r23
     7dc:	e1 f7       	brne	.-8      	; 0x7d6 <attachInterrupt+0x5e>
     7de:	48 2b       	or	r20, r24
     7e0:	40 93 69 00 	sts	0x0069, r20	; 0x800069 <__TEXT_REGION_LENGTH__+0x700069>
     7e4:	ea 9a       	sbi	0x1d, 2	; 29
     7e6:	08 95       	ret
     7e8:	80 91 69 00 	lds	r24, 0x0069	; 0x800069 <__TEXT_REGION_LENGTH__+0x700069>
     7ec:	8f 73       	andi	r24, 0x3F	; 63
     7ee:	66 e0       	ldi	r22, 0x06	; 6
     7f0:	44 0f       	add	r20, r20
     7f2:	55 1f       	adc	r21, r21
     7f4:	6a 95       	dec	r22
     7f6:	e1 f7       	brne	.-8      	; 0x7f0 <attachInterrupt+0x78>
     7f8:	48 2b       	or	r20, r24
     7fa:	40 93 69 00 	sts	0x0069, r20	; 0x800069 <__TEXT_REGION_LENGTH__+0x700069>
     7fe:	eb 9a       	sbi	0x1d, 3	; 29
     800:	08 95       	ret
     802:	80 91 6a 00 	lds	r24, 0x006A	; 0x80006a <__TEXT_REGION_LENGTH__+0x70006a>
     806:	8c 7f       	andi	r24, 0xFC	; 252
     808:	48 2b       	or	r20, r24
     80a:	40 93 6a 00 	sts	0x006A, r20	; 0x80006a <__TEXT_REGION_LENGTH__+0x70006a>
     80e:	ec 9a       	sbi	0x1d, 4	; 29
     810:	08 95       	ret
     812:	80 91 6a 00 	lds	r24, 0x006A	; 0x80006a <__TEXT_REGION_LENGTH__+0x70006a>
     816:	83 7f       	andi	r24, 0xF3	; 243
     818:	44 0f       	add	r20, r20
     81a:	55 1f       	adc	r21, r21
     81c:	44 0f       	add	r20, r20
     81e:	55 1f       	adc	r21, r21
     820:	48 2b       	or	r20, r24
     822:	40 93 6a 00 	sts	0x006A, r20	; 0x80006a <__TEXT_REGION_LENGTH__+0x70006a>
     826:	ed 9a       	sbi	0x1d, 5	; 29
     828:	08 95       	ret
     82a:	80 91 6a 00 	lds	r24, 0x006A	; 0x80006a <__TEXT_REGION_LENGTH__+0x70006a>
     82e:	8f 7c       	andi	r24, 0xCF	; 207
     830:	24 e0       	ldi	r18, 0x04	; 4
     832:	44 0f       	add	r20, r20
     834:	55 1f       	adc	r21, r21
     836:	2a 95       	dec	r18
     838:	e1 f7       	brne	.-8      	; 0x832 <attachInterrupt+0xba>
     83a:	48 2b       	or	r20, r24
     83c:	40 93 6a 00 	sts	0x006A, r20	; 0x80006a <__TEXT_REGION_LENGTH__+0x70006a>
     840:	ee 9a       	sbi	0x1d, 6	; 29
     842:	08 95       	ret
     844:	80 91 6a 00 	lds	r24, 0x006A	; 0x80006a <__TEXT_REGION_LENGTH__+0x70006a>
     848:	8f 73       	andi	r24, 0x3F	; 63
     84a:	96 e0       	ldi	r25, 0x06	; 6
     84c:	44 0f       	add	r20, r20
     84e:	55 1f       	adc	r21, r21
     850:	9a 95       	dec	r25
     852:	e1 f7       	brne	.-8      	; 0x84c <attachInterrupt+0xd4>
     854:	48 2b       	or	r20, r24
     856:	40 93 6a 00 	sts	0x006A, r20	; 0x80006a <__TEXT_REGION_LENGTH__+0x70006a>
     85a:	ef 9a       	sbi	0x1d, 7	; 29
     85c:	08 95       	ret

0000085e <__vector_1>:
IMPLEMENT_ISR(INT3_vect, EXTERNAL_INT_3)
IMPLEMENT_ISR(INT6_vect, EXTERNAL_INT_4)

#elif defined(EICRA) && defined(EICRB)

IMPLEMENT_ISR(INT0_vect, EXTERNAL_INT_2)
     85e:	1f 92       	push	r1
     860:	0f 92       	push	r0
     862:	0f b6       	in	r0, 0x3f	; 63
     864:	0f 92       	push	r0
     866:	11 24       	eor	r1, r1
     868:	0b b6       	in	r0, 0x3b	; 59
     86a:	0f 92       	push	r0
     86c:	2f 93       	push	r18
     86e:	3f 93       	push	r19
     870:	4f 93       	push	r20
     872:	5f 93       	push	r21
     874:	6f 93       	push	r22
     876:	7f 93       	push	r23
     878:	8f 93       	push	r24
     87a:	9f 93       	push	r25
     87c:	af 93       	push	r26
     87e:	bf 93       	push	r27
     880:	ef 93       	push	r30
     882:	ff 93       	push	r31
     884:	e0 91 20 02 	lds	r30, 0x0220	; 0x800220 <intFunc+0x4>
     888:	f0 91 21 02 	lds	r31, 0x0221	; 0x800221 <intFunc+0x5>
     88c:	19 95       	eicall
     88e:	ff 91       	pop	r31
     890:	ef 91       	pop	r30
     892:	bf 91       	pop	r27
     894:	af 91       	pop	r26
     896:	9f 91       	pop	r25
     898:	8f 91       	pop	r24
     89a:	7f 91       	pop	r23
     89c:	6f 91       	pop	r22
     89e:	5f 91       	pop	r21
     8a0:	4f 91       	pop	r20
     8a2:	3f 91       	pop	r19
     8a4:	2f 91       	pop	r18
     8a6:	0f 90       	pop	r0
     8a8:	0b be       	out	0x3b, r0	; 59
     8aa:	0f 90       	pop	r0
     8ac:	0f be       	out	0x3f, r0	; 63
     8ae:	0f 90       	pop	r0
     8b0:	1f 90       	pop	r1
     8b2:	18 95       	reti

000008b4 <__vector_2>:
IMPLEMENT_ISR(INT1_vect, EXTERNAL_INT_3)
     8b4:	1f 92       	push	r1
     8b6:	0f 92       	push	r0
     8b8:	0f b6       	in	r0, 0x3f	; 63
     8ba:	0f 92       	push	r0
     8bc:	11 24       	eor	r1, r1
     8be:	0b b6       	in	r0, 0x3b	; 59
     8c0:	0f 92       	push	r0
     8c2:	2f 93       	push	r18
     8c4:	3f 93       	push	r19
     8c6:	4f 93       	push	r20
     8c8:	5f 93       	push	r21
     8ca:	6f 93       	push	r22
     8cc:	7f 93       	push	r23
     8ce:	8f 93       	push	r24
     8d0:	9f 93       	push	r25
     8d2:	af 93       	push	r26
     8d4:	bf 93       	push	r27
     8d6:	ef 93       	push	r30
     8d8:	ff 93       	push	r31
     8da:	e0 91 22 02 	lds	r30, 0x0222	; 0x800222 <intFunc+0x6>
     8de:	f0 91 23 02 	lds	r31, 0x0223	; 0x800223 <intFunc+0x7>
     8e2:	19 95       	eicall
     8e4:	ff 91       	pop	r31
     8e6:	ef 91       	pop	r30
     8e8:	bf 91       	pop	r27
     8ea:	af 91       	pop	r26
     8ec:	9f 91       	pop	r25
     8ee:	8f 91       	pop	r24
     8f0:	7f 91       	pop	r23
     8f2:	6f 91       	pop	r22
     8f4:	5f 91       	pop	r21
     8f6:	4f 91       	pop	r20
     8f8:	3f 91       	pop	r19
     8fa:	2f 91       	pop	r18
     8fc:	0f 90       	pop	r0
     8fe:	0b be       	out	0x3b, r0	; 59
     900:	0f 90       	pop	r0
     902:	0f be       	out	0x3f, r0	; 63
     904:	0f 90       	pop	r0
     906:	1f 90       	pop	r1
     908:	18 95       	reti

0000090a <__vector_3>:
IMPLEMENT_ISR(INT2_vect, EXTERNAL_INT_4)
     90a:	1f 92       	push	r1
     90c:	0f 92       	push	r0
     90e:	0f b6       	in	r0, 0x3f	; 63
     910:	0f 92       	push	r0
     912:	11 24       	eor	r1, r1
     914:	0b b6       	in	r0, 0x3b	; 59
     916:	0f 92       	push	r0
     918:	2f 93       	push	r18
     91a:	3f 93       	push	r19
     91c:	4f 93       	push	r20
     91e:	5f 93       	push	r21
     920:	6f 93       	push	r22
     922:	7f 93       	push	r23
     924:	8f 93       	push	r24
     926:	9f 93       	push	r25
     928:	af 93       	push	r26
     92a:	bf 93       	push	r27
     92c:	ef 93       	push	r30
     92e:	ff 93       	push	r31
     930:	e0 91 24 02 	lds	r30, 0x0224	; 0x800224 <intFunc+0x8>
     934:	f0 91 25 02 	lds	r31, 0x0225	; 0x800225 <intFunc+0x9>
     938:	19 95       	eicall
     93a:	ff 91       	pop	r31
     93c:	ef 91       	pop	r30
     93e:	bf 91       	pop	r27
     940:	af 91       	pop	r26
     942:	9f 91       	pop	r25
     944:	8f 91       	pop	r24
     946:	7f 91       	pop	r23
     948:	6f 91       	pop	r22
     94a:	5f 91       	pop	r21
     94c:	4f 91       	pop	r20
     94e:	3f 91       	pop	r19
     950:	2f 91       	pop	r18
     952:	0f 90       	pop	r0
     954:	0b be       	out	0x3b, r0	; 59
     956:	0f 90       	pop	r0
     958:	0f be       	out	0x3f, r0	; 63
     95a:	0f 90       	pop	r0
     95c:	1f 90       	pop	r1
     95e:	18 95       	reti

00000960 <__vector_4>:
IMPLEMENT_ISR(INT3_vect, EXTERNAL_INT_5)
     960:	1f 92       	push	r1
     962:	0f 92       	push	r0
     964:	0f b6       	in	r0, 0x3f	; 63
     966:	0f 92       	push	r0
     968:	11 24       	eor	r1, r1
     96a:	0b b6       	in	r0, 0x3b	; 59
     96c:	0f 92       	push	r0
     96e:	2f 93       	push	r18
     970:	3f 93       	push	r19
     972:	4f 93       	push	r20
     974:	5f 93       	push	r21
     976:	6f 93       	push	r22
     978:	7f 93       	push	r23
     97a:	8f 93       	push	r24
     97c:	9f 93       	push	r25
     97e:	af 93       	push	r26
     980:	bf 93       	push	r27
     982:	ef 93       	push	r30
     984:	ff 93       	push	r31
     986:	e0 91 26 02 	lds	r30, 0x0226	; 0x800226 <intFunc+0xa>
     98a:	f0 91 27 02 	lds	r31, 0x0227	; 0x800227 <intFunc+0xb>
     98e:	19 95       	eicall
     990:	ff 91       	pop	r31
     992:	ef 91       	pop	r30
     994:	bf 91       	pop	r27
     996:	af 91       	pop	r26
     998:	9f 91       	pop	r25
     99a:	8f 91       	pop	r24
     99c:	7f 91       	pop	r23
     99e:	6f 91       	pop	r22
     9a0:	5f 91       	pop	r21
     9a2:	4f 91       	pop	r20
     9a4:	3f 91       	pop	r19
     9a6:	2f 91       	pop	r18
     9a8:	0f 90       	pop	r0
     9aa:	0b be       	out	0x3b, r0	; 59
     9ac:	0f 90       	pop	r0
     9ae:	0f be       	out	0x3f, r0	; 63
     9b0:	0f 90       	pop	r0
     9b2:	1f 90       	pop	r1
     9b4:	18 95       	reti

000009b6 <__vector_5>:
IMPLEMENT_ISR(INT4_vect, EXTERNAL_INT_0)
     9b6:	1f 92       	push	r1
     9b8:	0f 92       	push	r0
     9ba:	0f b6       	in	r0, 0x3f	; 63
     9bc:	0f 92       	push	r0
     9be:	11 24       	eor	r1, r1
     9c0:	0b b6       	in	r0, 0x3b	; 59
     9c2:	0f 92       	push	r0
     9c4:	2f 93       	push	r18
     9c6:	3f 93       	push	r19
     9c8:	4f 93       	push	r20
     9ca:	5f 93       	push	r21
     9cc:	6f 93       	push	r22
     9ce:	7f 93       	push	r23
     9d0:	8f 93       	push	r24
     9d2:	9f 93       	push	r25
     9d4:	af 93       	push	r26
     9d6:	bf 93       	push	r27
     9d8:	ef 93       	push	r30
     9da:	ff 93       	push	r31
     9dc:	e0 91 1c 02 	lds	r30, 0x021C	; 0x80021c <intFunc>
     9e0:	f0 91 1d 02 	lds	r31, 0x021D	; 0x80021d <intFunc+0x1>
     9e4:	19 95       	eicall
     9e6:	ff 91       	pop	r31
     9e8:	ef 91       	pop	r30
     9ea:	bf 91       	pop	r27
     9ec:	af 91       	pop	r26
     9ee:	9f 91       	pop	r25
     9f0:	8f 91       	pop	r24
     9f2:	7f 91       	pop	r23
     9f4:	6f 91       	pop	r22
     9f6:	5f 91       	pop	r21
     9f8:	4f 91       	pop	r20
     9fa:	3f 91       	pop	r19
     9fc:	2f 91       	pop	r18
     9fe:	0f 90       	pop	r0
     a00:	0b be       	out	0x3b, r0	; 59
     a02:	0f 90       	pop	r0
     a04:	0f be       	out	0x3f, r0	; 63
     a06:	0f 90       	pop	r0
     a08:	1f 90       	pop	r1
     a0a:	18 95       	reti

00000a0c <__vector_6>:
IMPLEMENT_ISR(INT5_vect, EXTERNAL_INT_1)
     a0c:	1f 92       	push	r1
     a0e:	0f 92       	push	r0
     a10:	0f b6       	in	r0, 0x3f	; 63
     a12:	0f 92       	push	r0
     a14:	11 24       	eor	r1, r1
     a16:	0b b6       	in	r0, 0x3b	; 59
     a18:	0f 92       	push	r0
     a1a:	2f 93       	push	r18
     a1c:	3f 93       	push	r19
     a1e:	4f 93       	push	r20
     a20:	5f 93       	push	r21
     a22:	6f 93       	push	r22
     a24:	7f 93       	push	r23
     a26:	8f 93       	push	r24
     a28:	9f 93       	push	r25
     a2a:	af 93       	push	r26
     a2c:	bf 93       	push	r27
     a2e:	ef 93       	push	r30
     a30:	ff 93       	push	r31
     a32:	e0 91 1e 02 	lds	r30, 0x021E	; 0x80021e <intFunc+0x2>
     a36:	f0 91 1f 02 	lds	r31, 0x021F	; 0x80021f <intFunc+0x3>
     a3a:	19 95       	eicall
     a3c:	ff 91       	pop	r31
     a3e:	ef 91       	pop	r30
     a40:	bf 91       	pop	r27
     a42:	af 91       	pop	r26
     a44:	9f 91       	pop	r25
     a46:	8f 91       	pop	r24
     a48:	7f 91       	pop	r23
     a4a:	6f 91       	pop	r22
     a4c:	5f 91       	pop	r21
     a4e:	4f 91       	pop	r20
     a50:	3f 91       	pop	r19
     a52:	2f 91       	pop	r18
     a54:	0f 90       	pop	r0
     a56:	0b be       	out	0x3b, r0	; 59
     a58:	0f 90       	pop	r0
     a5a:	0f be       	out	0x3f, r0	; 63
     a5c:	0f 90       	pop	r0
     a5e:	1f 90       	pop	r1
     a60:	18 95       	reti

00000a62 <__vector_7>:
IMPLEMENT_ISR(INT6_vect, EXTERNAL_INT_6)
     a62:	1f 92       	push	r1
     a64:	0f 92       	push	r0
     a66:	0f b6       	in	r0, 0x3f	; 63
     a68:	0f 92       	push	r0
     a6a:	11 24       	eor	r1, r1
     a6c:	0b b6       	in	r0, 0x3b	; 59
     a6e:	0f 92       	push	r0
     a70:	2f 93       	push	r18
     a72:	3f 93       	push	r19
     a74:	4f 93       	push	r20
     a76:	5f 93       	push	r21
     a78:	6f 93       	push	r22
     a7a:	7f 93       	push	r23
     a7c:	8f 93       	push	r24
     a7e:	9f 93       	push	r25
     a80:	af 93       	push	r26
     a82:	bf 93       	push	r27
     a84:	ef 93       	push	r30
     a86:	ff 93       	push	r31
     a88:	e0 91 28 02 	lds	r30, 0x0228	; 0x800228 <intFunc+0xc>
     a8c:	f0 91 29 02 	lds	r31, 0x0229	; 0x800229 <intFunc+0xd>
     a90:	19 95       	eicall
     a92:	ff 91       	pop	r31
     a94:	ef 91       	pop	r30
     a96:	bf 91       	pop	r27
     a98:	af 91       	pop	r26
     a9a:	9f 91       	pop	r25
     a9c:	8f 91       	pop	r24
     a9e:	7f 91       	pop	r23
     aa0:	6f 91       	pop	r22
     aa2:	5f 91       	pop	r21
     aa4:	4f 91       	pop	r20
     aa6:	3f 91       	pop	r19
     aa8:	2f 91       	pop	r18
     aaa:	0f 90       	pop	r0
     aac:	0b be       	out	0x3b, r0	; 59
     aae:	0f 90       	pop	r0
     ab0:	0f be       	out	0x3f, r0	; 63
     ab2:	0f 90       	pop	r0
     ab4:	1f 90       	pop	r1
     ab6:	18 95       	reti

00000ab8 <__vector_8>:
IMPLEMENT_ISR(INT7_vect, EXTERNAL_INT_7)
     ab8:	1f 92       	push	r1
     aba:	0f 92       	push	r0
     abc:	0f b6       	in	r0, 0x3f	; 63
     abe:	0f 92       	push	r0
     ac0:	11 24       	eor	r1, r1
     ac2:	0b b6       	in	r0, 0x3b	; 59
     ac4:	0f 92       	push	r0
     ac6:	2f 93       	push	r18
     ac8:	3f 93       	push	r19
     aca:	4f 93       	push	r20
     acc:	5f 93       	push	r21
     ace:	6f 93       	push	r22
     ad0:	7f 93       	push	r23
     ad2:	8f 93       	push	r24
     ad4:	9f 93       	push	r25
     ad6:	af 93       	push	r26
     ad8:	bf 93       	push	r27
     ada:	ef 93       	push	r30
     adc:	ff 93       	push	r31
     ade:	e0 91 2a 02 	lds	r30, 0x022A	; 0x80022a <intFunc+0xe>
     ae2:	f0 91 2b 02 	lds	r31, 0x022B	; 0x80022b <intFunc+0xf>
     ae6:	19 95       	eicall
     ae8:	ff 91       	pop	r31
     aea:	ef 91       	pop	r30
     aec:	bf 91       	pop	r27
     aee:	af 91       	pop	r26
     af0:	9f 91       	pop	r25
     af2:	8f 91       	pop	r24
     af4:	7f 91       	pop	r23
     af6:	6f 91       	pop	r22
     af8:	5f 91       	pop	r21
     afa:	4f 91       	pop	r20
     afc:	3f 91       	pop	r19
     afe:	2f 91       	pop	r18
     b00:	0f 90       	pop	r0
     b02:	0b be       	out	0x3b, r0	; 59
     b04:	0f 90       	pop	r0
     b06:	0f be       	out	0x3f, r0	; 63
     b08:	0f 90       	pop	r0
     b0a:	1f 90       	pop	r1
     b0c:	18 95       	reti

00000b0e <__vector_23>:
	cli();
	m = timer0_millis;
	SREG = oldSREG;

	return m;
}
     b0e:	1f 92       	push	r1
     b10:	0f 92       	push	r0
     b12:	0f b6       	in	r0, 0x3f	; 63
     b14:	0f 92       	push	r0
     b16:	11 24       	eor	r1, r1
     b18:	2f 93       	push	r18
     b1a:	3f 93       	push	r19
     b1c:	8f 93       	push	r24
     b1e:	9f 93       	push	r25
     b20:	af 93       	push	r26
     b22:	bf 93       	push	r27
     b24:	80 91 65 02 	lds	r24, 0x0265	; 0x800265 <timer0_millis>
     b28:	90 91 66 02 	lds	r25, 0x0266	; 0x800266 <timer0_millis+0x1>
     b2c:	a0 91 67 02 	lds	r26, 0x0267	; 0x800267 <timer0_millis+0x2>
     b30:	b0 91 68 02 	lds	r27, 0x0268	; 0x800268 <timer0_millis+0x3>
     b34:	30 91 64 02 	lds	r19, 0x0264	; 0x800264 <__data_end>
     b38:	23 e0       	ldi	r18, 0x03	; 3
     b3a:	23 0f       	add	r18, r19
     b3c:	2d 37       	cpi	r18, 0x7D	; 125
     b3e:	20 f4       	brcc	.+8      	; 0xb48 <__vector_23+0x3a>
     b40:	01 96       	adiw	r24, 0x01	; 1
     b42:	a1 1d       	adc	r26, r1
     b44:	b1 1d       	adc	r27, r1
     b46:	05 c0       	rjmp	.+10     	; 0xb52 <__vector_23+0x44>
     b48:	26 e8       	ldi	r18, 0x86	; 134
     b4a:	23 0f       	add	r18, r19
     b4c:	02 96       	adiw	r24, 0x02	; 2
     b4e:	a1 1d       	adc	r26, r1
     b50:	b1 1d       	adc	r27, r1
     b52:	20 93 64 02 	sts	0x0264, r18	; 0x800264 <__data_end>
     b56:	80 93 65 02 	sts	0x0265, r24	; 0x800265 <timer0_millis>
     b5a:	90 93 66 02 	sts	0x0266, r25	; 0x800266 <timer0_millis+0x1>
     b5e:	a0 93 67 02 	sts	0x0267, r26	; 0x800267 <timer0_millis+0x2>
     b62:	b0 93 68 02 	sts	0x0268, r27	; 0x800268 <timer0_millis+0x3>
     b66:	80 91 69 02 	lds	r24, 0x0269	; 0x800269 <timer0_overflow_count>
     b6a:	90 91 6a 02 	lds	r25, 0x026A	; 0x80026a <timer0_overflow_count+0x1>
     b6e:	a0 91 6b 02 	lds	r26, 0x026B	; 0x80026b <timer0_overflow_count+0x2>
     b72:	b0 91 6c 02 	lds	r27, 0x026C	; 0x80026c <timer0_overflow_count+0x3>
     b76:	01 96       	adiw	r24, 0x01	; 1
     b78:	a1 1d       	adc	r26, r1
     b7a:	b1 1d       	adc	r27, r1
     b7c:	80 93 69 02 	sts	0x0269, r24	; 0x800269 <timer0_overflow_count>
     b80:	90 93 6a 02 	sts	0x026A, r25	; 0x80026a <timer0_overflow_count+0x1>
     b84:	a0 93 6b 02 	sts	0x026B, r26	; 0x80026b <timer0_overflow_count+0x2>
     b88:	b0 93 6c 02 	sts	0x026C, r27	; 0x80026c <timer0_overflow_count+0x3>
     b8c:	bf 91       	pop	r27
     b8e:	af 91       	pop	r26
     b90:	9f 91       	pop	r25
     b92:	8f 91       	pop	r24
     b94:	3f 91       	pop	r19
     b96:	2f 91       	pop	r18
     b98:	0f 90       	pop	r0
     b9a:	0f be       	out	0x3f, r0	; 63
     b9c:	0f 90       	pop	r0
     b9e:	1f 90       	pop	r1
     ba0:	18 95       	reti

00000ba2 <micros>:

unsigned long micros() {
	unsigned long m;
	uint8_t oldSREG = SREG, t;
     ba2:	3f b7       	in	r19, 0x3f	; 63
	
	cli();
     ba4:	f8 94       	cli
	m = timer0_overflow_count;
     ba6:	80 91 69 02 	lds	r24, 0x0269	; 0x800269 <timer0_overflow_count>
     baa:	90 91 6a 02 	lds	r25, 0x026A	; 0x80026a <timer0_overflow_count+0x1>
     bae:	a0 91 6b 02 	lds	r26, 0x026B	; 0x80026b <timer0_overflow_count+0x2>
     bb2:	b0 91 6c 02 	lds	r27, 0x026C	; 0x80026c <timer0_overflow_count+0x3>
#if defined(TCNT0)
	t = TCNT0;
     bb6:	26 b5       	in	r18, 0x26	; 38
#else
	#error TIMER 0 not defined
#endif

#ifdef TIFR0
	if ((TIFR0 & _BV(TOV0)) && (t < 255))
     bb8:	a8 9b       	sbis	0x15, 0	; 21
     bba:	05 c0       	rjmp	.+10     	; 0xbc6 <micros+0x24>
     bbc:	2f 3f       	cpi	r18, 0xFF	; 255
     bbe:	19 f0       	breq	.+6      	; 0xbc6 <micros+0x24>
		m++;
     bc0:	01 96       	adiw	r24, 0x01	; 1
     bc2:	a1 1d       	adc	r26, r1
     bc4:	b1 1d       	adc	r27, r1
#else
	if ((TIFR & _BV(TOV0)) && (t < 255))
		m++;
#endif

	SREG = oldSREG;
     bc6:	3f bf       	out	0x3f, r19	; 63
	
	return ((m << 8) + t) * (64 / clockCyclesPerMicrosecond());
     bc8:	ba 2f       	mov	r27, r26
     bca:	a9 2f       	mov	r26, r25
     bcc:	98 2f       	mov	r25, r24
     bce:	88 27       	eor	r24, r24
     bd0:	82 0f       	add	r24, r18
     bd2:	91 1d       	adc	r25, r1
     bd4:	a1 1d       	adc	r26, r1
     bd6:	b1 1d       	adc	r27, r1
     bd8:	bc 01       	movw	r22, r24
     bda:	cd 01       	movw	r24, r26
     bdc:	42 e0       	ldi	r20, 0x02	; 2
     bde:	66 0f       	add	r22, r22
     be0:	77 1f       	adc	r23, r23
     be2:	88 1f       	adc	r24, r24
     be4:	99 1f       	adc	r25, r25
     be6:	4a 95       	dec	r20
     be8:	d1 f7       	brne	.-12     	; 0xbde <micros+0x3c>
}
     bea:	08 95       	ret

00000bec <delay>:

void delay(unsigned long ms)
{
     bec:	8f 92       	push	r8
     bee:	9f 92       	push	r9
     bf0:	af 92       	push	r10
     bf2:	bf 92       	push	r11
     bf4:	cf 92       	push	r12
     bf6:	df 92       	push	r13
     bf8:	ef 92       	push	r14
     bfa:	ff 92       	push	r15
     bfc:	6b 01       	movw	r12, r22
	uint32_t start = micros();
     bfe:	7c 01       	movw	r14, r24
     c00:	d0 df       	rcall	.-96     	; 0xba2 <micros>
     c02:	4b 01       	movw	r8, r22

	while (ms > 0) {
     c04:	5c 01       	movw	r10, r24
     c06:	c1 14       	cp	r12, r1
     c08:	d1 04       	cpc	r13, r1
		yield();
     c0a:	e1 04       	cpc	r14, r1
		while ( ms > 0 && (micros() - start) >= 1000) {
     c0c:	f1 04       	cpc	r15, r1
     c0e:	f1 f0       	breq	.+60     	; 0xc4c <delay+0x60>
     c10:	88 d1       	rcall	.+784    	; 0xf22 <yield>
     c12:	c7 df       	rcall	.-114    	; 0xba2 <micros>
     c14:	dc 01       	movw	r26, r24
     c16:	cb 01       	movw	r24, r22
     c18:	88 19       	sub	r24, r8
     c1a:	99 09       	sbc	r25, r9
     c1c:	aa 09       	sbc	r26, r10
     c1e:	bb 09       	sbc	r27, r11
     c20:	88 3e       	cpi	r24, 0xE8	; 232
     c22:	93 40       	sbci	r25, 0x03	; 3
     c24:	a1 05       	cpc	r26, r1
			ms--;
     c26:	b1 05       	cpc	r27, r1
     c28:	70 f3       	brcs	.-36     	; 0xc06 <delay+0x1a>
     c2a:	21 e0       	ldi	r18, 0x01	; 1
     c2c:	c2 1a       	sub	r12, r18
     c2e:	d1 08       	sbc	r13, r1
			start += 1000;
     c30:	e1 08       	sbc	r14, r1
     c32:	f1 08       	sbc	r15, r1
     c34:	88 ee       	ldi	r24, 0xE8	; 232
     c36:	88 0e       	add	r8, r24
     c38:	83 e0       	ldi	r24, 0x03	; 3
     c3a:	98 1e       	adc	r9, r24
{
	uint32_t start = micros();

	while (ms > 0) {
		yield();
		while ( ms > 0 && (micros() - start) >= 1000) {
     c3c:	a1 1c       	adc	r10, r1
     c3e:	b1 1c       	adc	r11, r1
     c40:	c1 14       	cp	r12, r1
     c42:	d1 04       	cpc	r13, r1
     c44:	e1 04       	cpc	r14, r1
     c46:	f1 04       	cpc	r15, r1
			ms--;
			start += 1000;
		}
	}
}
     c48:	21 f7       	brne	.-56     	; 0xc12 <delay+0x26>
     c4a:	dd cf       	rjmp	.-70     	; 0xc06 <delay+0x1a>
     c4c:	ff 90       	pop	r15
     c4e:	ef 90       	pop	r14
     c50:	df 90       	pop	r13
     c52:	cf 90       	pop	r12
     c54:	bf 90       	pop	r11
     c56:	af 90       	pop	r10
     c58:	9f 90       	pop	r9
     c5a:	8f 90       	pop	r8
     c5c:	08 95       	ret

00000c5e <delayMicroseconds>:
#elif F_CPU >= 16000000L
	// for the 16 MHz clock on most Arduino boards

	// for a one-microsecond delay, simply return.  the overhead
	// of the function call takes 14 (16) cycles, which is 1us
	if (us <= 1) return; //  = 3 cycles, (4 when true)
     c5e:	82 30       	cpi	r24, 0x02	; 2
     c60:	91 05       	cpc	r25, r1
     c62:	38 f0       	brcs	.+14     	; 0xc72 <delayMicroseconds+0x14>

	// the following loop takes 1/4 of a microsecond (4 cycles)
	// per iteration, so execute it four times for each microsecond of
	// delay requested.
	us <<= 2; // x4 us, = 4 cycles
     c64:	88 0f       	add	r24, r24
     c66:	99 1f       	adc	r25, r25
     c68:	88 0f       	add	r24, r24
     c6a:	99 1f       	adc	r25, r25

	// account for the time taken in the preceeding commands.
	// we just burned 19 (21) cycles above, remove 5, (5*4=20)
	// us is at least 8 so we can substract 5
	us -= 5; // = 2 cycles,
     c6c:	05 97       	sbiw	r24, 0x05	; 5
	

#endif

	// busy wait
	__asm__ __volatile__ (
     c6e:	01 97       	sbiw	r24, 0x01	; 1
     c70:	f1 f7       	brne	.-4      	; 0xc6e <delayMicroseconds+0x10>
     c72:	08 95       	ret

00000c74 <init>:

void init()
{
	// this needs to be called before setup() or some functions won't
	// work there
	sei();
     c74:	78 94       	sei
	
	// on the ATmega168, timer 0 is also used for fast hardware pwm
	// (using phase-correct PWM would mean that timer 0 overflowed half as often
	// resulting in different millis() behavior on the ATmega8 and ATmega168)
#if defined(TCCR0A) && defined(WGM01)
	sbi(TCCR0A, WGM01);
     c76:	84 b5       	in	r24, 0x24	; 36
     c78:	82 60       	ori	r24, 0x02	; 2
     c7a:	84 bd       	out	0x24, r24	; 36
	sbi(TCCR0A, WGM00);
     c7c:	84 b5       	in	r24, 0x24	; 36
     c7e:	81 60       	ori	r24, 0x01	; 1
     c80:	84 bd       	out	0x24, r24	; 36
	// this combination is for the standard atmega8
	sbi(TCCR0, CS01);
	sbi(TCCR0, CS00);
#elif defined(TCCR0B) && defined(CS01) && defined(CS00)
	// this combination is for the standard 168/328/1280/2560
	sbi(TCCR0B, CS01);
     c82:	85 b5       	in	r24, 0x25	; 37
     c84:	82 60       	ori	r24, 0x02	; 2
     c86:	85 bd       	out	0x25, r24	; 37
	sbi(TCCR0B, CS00);
     c88:	85 b5       	in	r24, 0x25	; 37
     c8a:	81 60       	ori	r24, 0x01	; 1
     c8c:	85 bd       	out	0x25, r24	; 37

	// enable timer 0 overflow interrupt
#if defined(TIMSK) && defined(TOIE0)
	sbi(TIMSK, TOIE0);
#elif defined(TIMSK0) && defined(TOIE0)
	sbi(TIMSK0, TOIE0);
     c8e:	ee e6       	ldi	r30, 0x6E	; 110
     c90:	f0 e0       	ldi	r31, 0x00	; 0
     c92:	80 81       	ld	r24, Z
     c94:	81 60       	ori	r24, 0x01	; 1
     c96:	80 83       	st	Z, r24
	// this is better for motors as it ensures an even waveform
	// note, however, that fast pwm mode can achieve a frequency of up
	// 8 MHz (with a 16 MHz clock) at 50% duty cycle

#if defined(TCCR1B) && defined(CS11) && defined(CS10)
	TCCR1B = 0;
     c98:	e1 e8       	ldi	r30, 0x81	; 129
     c9a:	f0 e0       	ldi	r31, 0x00	; 0
     c9c:	10 82       	st	Z, r1

	// set timer 1 prescale factor to 64
	sbi(TCCR1B, CS11);
     c9e:	80 81       	ld	r24, Z
     ca0:	82 60       	ori	r24, 0x02	; 2
     ca2:	80 83       	st	Z, r24
#if F_CPU >= 8000000L
	sbi(TCCR1B, CS10);
     ca4:	80 81       	ld	r24, Z
     ca6:	81 60       	ori	r24, 0x01	; 1
     ca8:	80 83       	st	Z, r24
	sbi(TCCR1, CS10);
#endif
#endif
	// put timer 1 in 8-bit phase correct pwm mode
#if defined(TCCR1A) && defined(WGM10)
	sbi(TCCR1A, WGM10);
     caa:	e0 e8       	ldi	r30, 0x80	; 128
     cac:	f0 e0       	ldi	r31, 0x00	; 0
     cae:	80 81       	ld	r24, Z
     cb0:	81 60       	ori	r24, 0x01	; 1
     cb2:	80 83       	st	Z, r24

	// set timer 2 prescale factor to 64
#if defined(TCCR2) && defined(CS22)
	sbi(TCCR2, CS22);
#elif defined(TCCR2B) && defined(CS22)
	sbi(TCCR2B, CS22);
     cb4:	e1 eb       	ldi	r30, 0xB1	; 177
     cb6:	f0 e0       	ldi	r31, 0x00	; 0
     cb8:	80 81       	ld	r24, Z
     cba:	84 60       	ori	r24, 0x04	; 4
     cbc:	80 83       	st	Z, r24

	// configure timer 2 for phase correct pwm (8-bit)
#if defined(TCCR2) && defined(WGM20)
	sbi(TCCR2, WGM20);
#elif defined(TCCR2A) && defined(WGM20)
	sbi(TCCR2A, WGM20);
     cbe:	e0 eb       	ldi	r30, 0xB0	; 176
     cc0:	f0 e0       	ldi	r31, 0x00	; 0
     cc2:	80 81       	ld	r24, Z
     cc4:	81 60       	ori	r24, 0x01	; 1
     cc6:	80 83       	st	Z, r24
//#else
	// Timer 2 not finished (may not be present on this CPU)
#endif

#if defined(TCCR3B) && defined(CS31) && defined(WGM30)
	sbi(TCCR3B, CS31);		// set timer 3 prescale factor to 64
     cc8:	e1 e9       	ldi	r30, 0x91	; 145
     cca:	f0 e0       	ldi	r31, 0x00	; 0
     ccc:	80 81       	ld	r24, Z
     cce:	82 60       	ori	r24, 0x02	; 2
     cd0:	80 83       	st	Z, r24
	sbi(TCCR3B, CS30);
     cd2:	80 81       	ld	r24, Z
     cd4:	81 60       	ori	r24, 0x01	; 1
     cd6:	80 83       	st	Z, r24
	sbi(TCCR3A, WGM30);		// put timer 3 in 8-bit phase correct pwm mode
     cd8:	e0 e9       	ldi	r30, 0x90	; 144
     cda:	f0 e0       	ldi	r31, 0x00	; 0
     cdc:	80 81       	ld	r24, Z
     cde:	81 60       	ori	r24, 0x01	; 1
     ce0:	80 83       	st	Z, r24
	sbi(TCCR4D, WGM40);		// put timer 4 in phase- and frequency-correct PWM mode	
	sbi(TCCR4A, PWM4A);		// enable PWM mode for comparator OCR4A
	sbi(TCCR4C, PWM4D);		// enable PWM mode for comparator OCR4D
#else /* beginning of timer4 block for ATMEGA1280 and ATMEGA2560 */
#if defined(TCCR4B) && defined(CS41) && defined(WGM40)
	sbi(TCCR4B, CS41);		// set timer 4 prescale factor to 64
     ce2:	e1 ea       	ldi	r30, 0xA1	; 161
     ce4:	f0 e0       	ldi	r31, 0x00	; 0
     ce6:	80 81       	ld	r24, Z
     ce8:	82 60       	ori	r24, 0x02	; 2
     cea:	80 83       	st	Z, r24
	sbi(TCCR4B, CS40);
     cec:	80 81       	ld	r24, Z
     cee:	81 60       	ori	r24, 0x01	; 1
     cf0:	80 83       	st	Z, r24
	sbi(TCCR4A, WGM40);		// put timer 4 in 8-bit phase correct pwm mode
     cf2:	e0 ea       	ldi	r30, 0xA0	; 160
     cf4:	f0 e0       	ldi	r31, 0x00	; 0
     cf6:	80 81       	ld	r24, Z
     cf8:	81 60       	ori	r24, 0x01	; 1
     cfa:	80 83       	st	Z, r24
#endif
#endif /* end timer4 block for ATMEGA1280/2560 and similar */	

#if defined(TCCR5B) && defined(CS51) && defined(WGM50)
	sbi(TCCR5B, CS51);		// set timer 5 prescale factor to 64
     cfc:	e1 e2       	ldi	r30, 0x21	; 33
     cfe:	f1 e0       	ldi	r31, 0x01	; 1
     d00:	80 81       	ld	r24, Z
     d02:	82 60       	ori	r24, 0x02	; 2
     d04:	80 83       	st	Z, r24
	sbi(TCCR5B, CS50);
     d06:	80 81       	ld	r24, Z
     d08:	81 60       	ori	r24, 0x01	; 1
     d0a:	80 83       	st	Z, r24
	sbi(TCCR5A, WGM50);		// put timer 5 in 8-bit phase correct pwm mode
     d0c:	e0 e2       	ldi	r30, 0x20	; 32
     d0e:	f1 e0       	ldi	r31, 0x01	; 1
     d10:	80 81       	ld	r24, Z
     d12:	81 60       	ori	r24, 0x01	; 1
     d14:	80 83       	st	Z, r24
#endif

#if defined(ADCSRA)
	// set a2d prescaler so we are inside the desired 50-200 KHz range.
	#if F_CPU >= 16000000 // 16 MHz / 128 = 125 KHz
		sbi(ADCSRA, ADPS2);
     d16:	ea e7       	ldi	r30, 0x7A	; 122
     d18:	f0 e0       	ldi	r31, 0x00	; 0
     d1a:	80 81       	ld	r24, Z
     d1c:	84 60       	ori	r24, 0x04	; 4
     d1e:	80 83       	st	Z, r24
		sbi(ADCSRA, ADPS1);
     d20:	80 81       	ld	r24, Z
     d22:	82 60       	ori	r24, 0x02	; 2
     d24:	80 83       	st	Z, r24
		sbi(ADCSRA, ADPS0);
     d26:	80 81       	ld	r24, Z
     d28:	81 60       	ori	r24, 0x01	; 1
     d2a:	80 83       	st	Z, r24
		cbi(ADCSRA, ADPS2);
		cbi(ADCSRA, ADPS1);
		sbi(ADCSRA, ADPS0);
	#endif
	// enable a2d conversions
	sbi(ADCSRA, ADEN);
     d2c:	80 81       	ld	r24, Z
     d2e:	80 68       	ori	r24, 0x80	; 128
     d30:	80 83       	st	Z, r24
	// here so they can be used as normal digital i/o; they will be
	// reconnected in Serial.begin()
#if defined(UCSRB)
	UCSRB = 0;
#elif defined(UCSR0B)
	UCSR0B = 0;
     d32:	10 92 c1 00 	sts	0x00C1, r1	; 0x8000c1 <__TEXT_REGION_LENGTH__+0x7000c1>
     d36:	08 95       	ret

00000d38 <turnOffPWM>:
//
//static inline void turnOffPWM(uint8_t timer) __attribute__ ((always_inline));
//static inline void turnOffPWM(uint8_t timer)
static void turnOffPWM(uint8_t timer)
{
	switch (timer)
     d38:	90 e0       	ldi	r25, 0x00	; 0
     d3a:	fc 01       	movw	r30, r24
     d3c:	31 97       	sbiw	r30, 0x01	; 1
     d3e:	e2 31       	cpi	r30, 0x12	; 18
     d40:	f1 05       	cpc	r31, r1
     d42:	08 f0       	brcs	.+2      	; 0xd46 <turnOffPWM+0xe>
     d44:	4d c0       	rjmp	.+154    	; 0xde0 <turnOffPWM+0xa8>
     d46:	88 27       	eor	r24, r24
     d48:	e7 58       	subi	r30, 0x87	; 135
     d4a:	ff 4f       	sbci	r31, 0xFF	; 255
     d4c:	8f 4f       	sbci	r24, 0xFF	; 255
     d4e:	ea c0       	rjmp	.+468    	; 0xf24 <__tablejump2__>
	{
		#if defined(TCCR1A) && defined(COM1A1)
		case TIMER1A:   cbi(TCCR1A, COM1A1);    break;
     d50:	80 91 80 00 	lds	r24, 0x0080	; 0x800080 <__TEXT_REGION_LENGTH__+0x700080>
     d54:	8f 77       	andi	r24, 0x7F	; 127
     d56:	03 c0       	rjmp	.+6      	; 0xd5e <turnOffPWM+0x26>
		#endif
		#if defined(TCCR1A) && defined(COM1B1)
		case TIMER1B:   cbi(TCCR1A, COM1B1);    break;
     d58:	80 91 80 00 	lds	r24, 0x0080	; 0x800080 <__TEXT_REGION_LENGTH__+0x700080>
     d5c:	8f 7d       	andi	r24, 0xDF	; 223
     d5e:	80 93 80 00 	sts	0x0080, r24	; 0x800080 <__TEXT_REGION_LENGTH__+0x700080>
     d62:	08 95       	ret
		#endif
		#if defined(TCCR1A) && defined(COM1C1)
		case TIMER1C:   cbi(TCCR1A, COM1C1);    break;
     d64:	80 91 80 00 	lds	r24, 0x0080	; 0x800080 <__TEXT_REGION_LENGTH__+0x700080>
     d68:	87 7f       	andi	r24, 0xF7	; 247
     d6a:	f9 cf       	rjmp	.-14     	; 0xd5e <turnOffPWM+0x26>
		#if defined(TCCR2) && defined(COM21)
		case  TIMER2:   cbi(TCCR2, COM21);      break;
		#endif
		
		#if defined(TCCR0A) && defined(COM0A1)
		case  TIMER0A:  cbi(TCCR0A, COM0A1);    break;
     d6c:	84 b5       	in	r24, 0x24	; 36
     d6e:	8f 77       	andi	r24, 0x7F	; 127
     d70:	02 c0       	rjmp	.+4      	; 0xd76 <turnOffPWM+0x3e>
		#endif
		
		#if defined(TCCR0A) && defined(COM0B1)
		case  TIMER0B:  cbi(TCCR0A, COM0B1);    break;
     d72:	84 b5       	in	r24, 0x24	; 36
     d74:	8f 7d       	andi	r24, 0xDF	; 223
     d76:	84 bd       	out	0x24, r24	; 36
     d78:	08 95       	ret
		#endif
		#if defined(TCCR2A) && defined(COM2A1)
		case  TIMER2A:  cbi(TCCR2A, COM2A1);    break;
     d7a:	80 91 b0 00 	lds	r24, 0x00B0	; 0x8000b0 <__TEXT_REGION_LENGTH__+0x7000b0>
     d7e:	8f 77       	andi	r24, 0x7F	; 127
     d80:	03 c0       	rjmp	.+6      	; 0xd88 <turnOffPWM+0x50>
		#endif
		#if defined(TCCR2A) && defined(COM2B1)
		case  TIMER2B:  cbi(TCCR2A, COM2B1);    break;
     d82:	80 91 b0 00 	lds	r24, 0x00B0	; 0x8000b0 <__TEXT_REGION_LENGTH__+0x7000b0>
     d86:	8f 7d       	andi	r24, 0xDF	; 223
     d88:	80 93 b0 00 	sts	0x00B0, r24	; 0x8000b0 <__TEXT_REGION_LENGTH__+0x7000b0>
     d8c:	08 95       	ret
		#endif
		
		#if defined(TCCR3A) && defined(COM3A1)
		case  TIMER3A:  cbi(TCCR3A, COM3A1);    break;
     d8e:	80 91 90 00 	lds	r24, 0x0090	; 0x800090 <__TEXT_REGION_LENGTH__+0x700090>
     d92:	8f 77       	andi	r24, 0x7F	; 127
     d94:	07 c0       	rjmp	.+14     	; 0xda4 <turnOffPWM+0x6c>
		#endif
		#if defined(TCCR3A) && defined(COM3B1)
		case  TIMER3B:  cbi(TCCR3A, COM3B1);    break;
     d96:	80 91 90 00 	lds	r24, 0x0090	; 0x800090 <__TEXT_REGION_LENGTH__+0x700090>
     d9a:	8f 7d       	andi	r24, 0xDF	; 223
     d9c:	03 c0       	rjmp	.+6      	; 0xda4 <turnOffPWM+0x6c>
		#endif
		#if defined(TCCR3A) && defined(COM3C1)
		case  TIMER3C:  cbi(TCCR3A, COM3C1);    break;
     d9e:	80 91 90 00 	lds	r24, 0x0090	; 0x800090 <__TEXT_REGION_LENGTH__+0x700090>
     da2:	87 7f       	andi	r24, 0xF7	; 247
     da4:	80 93 90 00 	sts	0x0090, r24	; 0x800090 <__TEXT_REGION_LENGTH__+0x700090>
     da8:	08 95       	ret
		#endif

		#if defined(TCCR4A) && defined(COM4A1)
		case  TIMER4A:  cbi(TCCR4A, COM4A1);    break;
     daa:	80 91 a0 00 	lds	r24, 0x00A0	; 0x8000a0 <__TEXT_REGION_LENGTH__+0x7000a0>
     dae:	8f 77       	andi	r24, 0x7F	; 127
     db0:	07 c0       	rjmp	.+14     	; 0xdc0 <turnOffPWM+0x88>
		#endif					
		#if defined(TCCR4A) && defined(COM4B1)
		case  TIMER4B:  cbi(TCCR4A, COM4B1);    break;
     db2:	80 91 a0 00 	lds	r24, 0x00A0	; 0x8000a0 <__TEXT_REGION_LENGTH__+0x7000a0>
     db6:	8f 7d       	andi	r24, 0xDF	; 223
     db8:	03 c0       	rjmp	.+6      	; 0xdc0 <turnOffPWM+0x88>
		#endif
		#if defined(TCCR4A) && defined(COM4C1)
		case  TIMER4C:  cbi(TCCR4A, COM4C1);    break;
     dba:	80 91 a0 00 	lds	r24, 0x00A0	; 0x8000a0 <__TEXT_REGION_LENGTH__+0x7000a0>
     dbe:	87 7f       	andi	r24, 0xF7	; 247
     dc0:	80 93 a0 00 	sts	0x00A0, r24	; 0x8000a0 <__TEXT_REGION_LENGTH__+0x7000a0>
     dc4:	08 95       	ret
		#if defined(TCCR4C) && defined(COM4D1)
		case TIMER4D:	cbi(TCCR4C, COM4D1);	break;
		#endif			
			
		#if defined(TCCR5A)
		case  TIMER5A:  cbi(TCCR5A, COM5A1);    break;
     dc6:	80 91 20 01 	lds	r24, 0x0120	; 0x800120 <__TEXT_REGION_LENGTH__+0x700120>
     dca:	8f 77       	andi	r24, 0x7F	; 127
     dcc:	07 c0       	rjmp	.+14     	; 0xddc <turnOffPWM+0xa4>
		case  TIMER5B:  cbi(TCCR5A, COM5B1);    break;
     dce:	80 91 20 01 	lds	r24, 0x0120	; 0x800120 <__TEXT_REGION_LENGTH__+0x700120>
     dd2:	8f 7d       	andi	r24, 0xDF	; 223
     dd4:	03 c0       	rjmp	.+6      	; 0xddc <turnOffPWM+0xa4>
		case  TIMER5C:  cbi(TCCR5A, COM5C1);    break;
     dd6:	80 91 20 01 	lds	r24, 0x0120	; 0x800120 <__TEXT_REGION_LENGTH__+0x700120>
     dda:	87 7f       	andi	r24, 0xF7	; 247
     ddc:	80 93 20 01 	sts	0x0120, r24	; 0x800120 <__TEXT_REGION_LENGTH__+0x700120>
     de0:	08 95       	ret

00000de2 <pinMode>:
#define ARDUINO_MAIN
#include "wiring_private.h"
#include "pins_arduino.h"

void pinMode(uint8_t pin, uint8_t mode)
{
     de2:	cf 93       	push	r28
     de4:	df 93       	push	r29
	uint8_t bit = digitalPinToBitMask(pin);
     de6:	90 e0       	ldi	r25, 0x00	; 0
     de8:	fc 01       	movw	r30, r24
     dea:	e4 5a       	subi	r30, 0xA4	; 164
     dec:	fe 4f       	sbci	r31, 0xFE	; 254
     dee:	24 91       	lpm	r18, Z
	uint8_t port = digitalPinToPort(pin);
     df0:	fc 01       	movw	r30, r24
     df2:	ee 55       	subi	r30, 0x5E	; 94
     df4:	fe 4f       	sbci	r31, 0xFE	; 254
     df6:	84 91       	lpm	r24, Z
	volatile uint8_t *reg, *out;

	if (port == NOT_A_PIN) return;
     df8:	88 23       	and	r24, r24
     dfa:	61 f1       	breq	.+88     	; 0xe54 <pinMode+0x72>

	// JWS: can I let the optimizer do this?
	reg = portModeRegister(port);
     dfc:	90 e0       	ldi	r25, 0x00	; 0
     dfe:	88 0f       	add	r24, r24
     e00:	99 1f       	adc	r25, r25
     e02:	fc 01       	movw	r30, r24
     e04:	ee 5f       	subi	r30, 0xFE	; 254
     e06:	fd 4f       	sbci	r31, 0xFD	; 253
     e08:	c5 91       	lpm	r28, Z+
     e0a:	d4 91       	lpm	r29, Z
	out = portOutputRegister(port);
     e0c:	fc 01       	movw	r30, r24
     e0e:	e8 51       	subi	r30, 0x18	; 24
     e10:	fe 4f       	sbci	r31, 0xFE	; 254
     e12:	a5 91       	lpm	r26, Z+
     e14:	b4 91       	lpm	r27, Z

	if (mode == INPUT) { 
     e16:	61 11       	cpse	r22, r1
     e18:	09 c0       	rjmp	.+18     	; 0xe2c <pinMode+0x4a>
		uint8_t oldSREG = SREG;
     e1a:	9f b7       	in	r25, 0x3f	; 63
                cli();
     e1c:	f8 94       	cli
		*reg &= ~bit;
     e1e:	88 81       	ld	r24, Y
     e20:	20 95       	com	r18
     e22:	82 23       	and	r24, r18
     e24:	88 83       	st	Y, r24
		*out &= ~bit;
     e26:	ec 91       	ld	r30, X
     e28:	2e 23       	and	r18, r30
     e2a:	0b c0       	rjmp	.+22     	; 0xe42 <pinMode+0x60>
		SREG = oldSREG;
	} else if (mode == INPUT_PULLUP) {
     e2c:	62 30       	cpi	r22, 0x02	; 2
     e2e:	61 f4       	brne	.+24     	; 0xe48 <pinMode+0x66>
		uint8_t oldSREG = SREG;
     e30:	9f b7       	in	r25, 0x3f	; 63
                cli();
     e32:	f8 94       	cli
		*reg &= ~bit;
     e34:	88 81       	ld	r24, Y
     e36:	32 2f       	mov	r19, r18
     e38:	30 95       	com	r19
     e3a:	83 23       	and	r24, r19
     e3c:	88 83       	st	Y, r24
		*out |= bit;
     e3e:	ec 91       	ld	r30, X
     e40:	2e 2b       	or	r18, r30
     e42:	2c 93       	st	X, r18
		SREG = oldSREG;
     e44:	9f bf       	out	0x3f, r25	; 63
     e46:	06 c0       	rjmp	.+12     	; 0xe54 <pinMode+0x72>
	} else {
		uint8_t oldSREG = SREG;
     e48:	8f b7       	in	r24, 0x3f	; 63
                cli();
     e4a:	f8 94       	cli
		*reg |= bit;
     e4c:	e8 81       	ld	r30, Y
     e4e:	2e 2b       	or	r18, r30
     e50:	28 83       	st	Y, r18
		SREG = oldSREG;
     e52:	8f bf       	out	0x3f, r24	; 63
	}
}
     e54:	df 91       	pop	r29
     e56:	cf 91       	pop	r28
     e58:	08 95       	ret

00000e5a <digitalWrite>:
		#endif
	}
}

void digitalWrite(uint8_t pin, uint8_t val)
{
     e5a:	1f 93       	push	r17
     e5c:	cf 93       	push	r28
     e5e:	df 93       	push	r29
	uint8_t timer = digitalPinToTimer(pin);
     e60:	28 2f       	mov	r18, r24
     e62:	30 e0       	ldi	r19, 0x00	; 0
     e64:	f9 01       	movw	r30, r18
     e66:	ea 5e       	subi	r30, 0xEA	; 234
     e68:	fe 4f       	sbci	r31, 0xFE	; 254
     e6a:	84 91       	lpm	r24, Z
	uint8_t bit = digitalPinToBitMask(pin);
     e6c:	f9 01       	movw	r30, r18
     e6e:	e4 5a       	subi	r30, 0xA4	; 164
     e70:	fe 4f       	sbci	r31, 0xFE	; 254
     e72:	d4 91       	lpm	r29, Z
	uint8_t port = digitalPinToPort(pin);
     e74:	f9 01       	movw	r30, r18
     e76:	ee 55       	subi	r30, 0x5E	; 94
     e78:	fe 4f       	sbci	r31, 0xFE	; 254
     e7a:	c4 91       	lpm	r28, Z
	volatile uint8_t *out;

	if (port == NOT_A_PIN) return;
     e7c:	cc 23       	and	r28, r28
     e7e:	b9 f0       	breq	.+46     	; 0xeae <digitalWrite+0x54>
     e80:	16 2f       	mov	r17, r22

	// If the pin that support PWM output, we need to turn it off
	// before doing a digital write.
	if (timer != NOT_ON_TIMER) turnOffPWM(timer);
     e82:	81 11       	cpse	r24, r1

	out = portOutputRegister(port);
     e84:	59 df       	rcall	.-334    	; 0xd38 <turnOffPWM>
     e86:	ec 2f       	mov	r30, r28
     e88:	f0 e0       	ldi	r31, 0x00	; 0
     e8a:	ee 0f       	add	r30, r30
     e8c:	ff 1f       	adc	r31, r31
     e8e:	e8 51       	subi	r30, 0x18	; 24
     e90:	fe 4f       	sbci	r31, 0xFE	; 254
     e92:	a5 91       	lpm	r26, Z+

	uint8_t oldSREG = SREG;
     e94:	b4 91       	lpm	r27, Z
	cli();
     e96:	9f b7       	in	r25, 0x3f	; 63

	if (val == LOW) {
     e98:	f8 94       	cli
     e9a:	11 11       	cpse	r17, r1
		*out &= ~bit;
     e9c:	04 c0       	rjmp	.+8      	; 0xea6 <digitalWrite+0x4c>
     e9e:	8c 91       	ld	r24, X
     ea0:	d0 95       	com	r29
     ea2:	d8 23       	and	r29, r24
	} else {
		*out |= bit;
     ea4:	02 c0       	rjmp	.+4      	; 0xeaa <digitalWrite+0x50>
     ea6:	ec 91       	ld	r30, X
     ea8:	de 2b       	or	r29, r30
	}

	SREG = oldSREG;
     eaa:	dc 93       	st	X, r29
}
     eac:	9f bf       	out	0x3f, r25	; 63
     eae:	df 91       	pop	r29
     eb0:	cf 91       	pop	r28
     eb2:	1f 91       	pop	r17
     eb4:	08 95       	ret

00000eb6 <shiftOut>:
	}
	return value;
}

void shiftOut(uint8_t dataPin, uint8_t clockPin, uint8_t bitOrder, uint8_t val)
{
     eb6:	bf 92       	push	r11
     eb8:	cf 92       	push	r12
     eba:	df 92       	push	r13
     ebc:	ef 92       	push	r14
     ebe:	ff 92       	push	r15
     ec0:	0f 93       	push	r16
     ec2:	1f 93       	push	r17
     ec4:	cf 93       	push	r28
     ec6:	df 93       	push	r29
     ec8:	c8 2e       	mov	r12, r24
     eca:	d6 2e       	mov	r13, r22
     ecc:	b4 2e       	mov	r11, r20
     ece:	c7 e0       	ldi	r28, 0x07	; 7
     ed0:	d0 e0       	ldi	r29, 0x00	; 0
     ed2:	02 2f       	mov	r16, r18
     ed4:	10 e0       	ldi	r17, 0x00	; 0
	uint8_t i;

	for (i = 0; i < 8; i++)  {
		if (bitOrder == LSBFIRST)
			digitalWrite(dataPin, !!(val & (1 << i)));
     ed6:	87 e0       	ldi	r24, 0x07	; 7
     ed8:	e8 2e       	mov	r14, r24
     eda:	f1 2c       	mov	r15, r1
void shiftOut(uint8_t dataPin, uint8_t clockPin, uint8_t bitOrder, uint8_t val)
{
	uint8_t i;

	for (i = 0; i < 8; i++)  {
		if (bitOrder == LSBFIRST)
     edc:	b1 10       	cpse	r11, r1
     ede:	05 c0       	rjmp	.+10     	; 0xeea <shiftOut+0x34>
			digitalWrite(dataPin, !!(val & (1 << i)));
     ee0:	c7 01       	movw	r24, r14
     ee2:	8c 1b       	sub	r24, r28
     ee4:	9d 0b       	sbc	r25, r29
     ee6:	b8 01       	movw	r22, r16
     ee8:	02 c0       	rjmp	.+4      	; 0xeee <shiftOut+0x38>
		else	
			digitalWrite(dataPin, !!(val & (1 << (7 - i))));
     eea:	b8 01       	movw	r22, r16
     eec:	8c 2f       	mov	r24, r28
     eee:	02 c0       	rjmp	.+4      	; 0xef4 <shiftOut+0x3e>
     ef0:	75 95       	asr	r23
     ef2:	67 95       	ror	r22
     ef4:	8a 95       	dec	r24
     ef6:	e2 f7       	brpl	.-8      	; 0xef0 <shiftOut+0x3a>
     ef8:	61 70       	andi	r22, 0x01	; 1
     efa:	8c 2d       	mov	r24, r12
     efc:	ae df       	rcall	.-164    	; 0xe5a <digitalWrite>
			
		digitalWrite(clockPin, HIGH);
     efe:	61 e0       	ldi	r22, 0x01	; 1
     f00:	8d 2d       	mov	r24, r13
		digitalWrite(clockPin, LOW);		
     f02:	ab df       	rcall	.-170    	; 0xe5a <digitalWrite>
     f04:	60 e0       	ldi	r22, 0x00	; 0
     f06:	8d 2d       	mov	r24, r13
     f08:	a8 df       	rcall	.-176    	; 0xe5a <digitalWrite>
     f0a:	21 97       	sbiw	r28, 0x01	; 1
	}
}
     f0c:	38 f7       	brcc	.-50     	; 0xedc <shiftOut+0x26>
     f0e:	df 91       	pop	r29
     f10:	cf 91       	pop	r28
     f12:	1f 91       	pop	r17
     f14:	0f 91       	pop	r16
     f16:	ff 90       	pop	r15
     f18:	ef 90       	pop	r14
     f1a:	df 90       	pop	r13
     f1c:	cf 90       	pop	r12
     f1e:	bf 90       	pop	r11
     f20:	08 95       	ret

00000f22 <yield>:
 * libraries or sketches that supports cooperative threads.
 *
 * Its defined as a weak symbol and it can be redefined to implement a
 * real cooperative scheduler.
 */
static void __empty() {
     f22:	08 95       	ret

00000f24 <__tablejump2__>:
     f24:	ee 0f       	add	r30, r30
     f26:	ff 1f       	adc	r31, r31
     f28:	88 1f       	adc	r24, r24
     f2a:	8b bf       	out	0x3b, r24	; 59
     f2c:	07 90       	elpm	r0, Z+
     f2e:	f6 91       	elpm	r31, Z
     f30:	e0 2d       	mov	r30, r0
     f32:	19 94       	eijmp

00000f34 <malloc>:
     f34:	0f 93       	push	r16
     f36:	1f 93       	push	r17
     f38:	cf 93       	push	r28
     f3a:	df 93       	push	r29
     f3c:	82 30       	cpi	r24, 0x02	; 2
     f3e:	91 05       	cpc	r25, r1
     f40:	10 f4       	brcc	.+4      	; 0xf46 <malloc+0x12>
     f42:	82 e0       	ldi	r24, 0x02	; 2
     f44:	90 e0       	ldi	r25, 0x00	; 0
     f46:	e0 91 75 02 	lds	r30, 0x0275	; 0x800275 <__flp>
     f4a:	f0 91 76 02 	lds	r31, 0x0276	; 0x800276 <__flp+0x1>
     f4e:	20 e0       	ldi	r18, 0x00	; 0
     f50:	30 e0       	ldi	r19, 0x00	; 0
     f52:	a0 e0       	ldi	r26, 0x00	; 0
     f54:	b0 e0       	ldi	r27, 0x00	; 0
     f56:	30 97       	sbiw	r30, 0x00	; 0
     f58:	19 f1       	breq	.+70     	; 0xfa0 <malloc+0x6c>
     f5a:	40 81       	ld	r20, Z
     f5c:	51 81       	ldd	r21, Z+1	; 0x01
     f5e:	02 81       	ldd	r16, Z+2	; 0x02
     f60:	13 81       	ldd	r17, Z+3	; 0x03
     f62:	48 17       	cp	r20, r24
     f64:	59 07       	cpc	r21, r25
     f66:	c8 f0       	brcs	.+50     	; 0xf9a <malloc+0x66>
     f68:	84 17       	cp	r24, r20
     f6a:	95 07       	cpc	r25, r21
     f6c:	69 f4       	brne	.+26     	; 0xf88 <malloc+0x54>
     f6e:	10 97       	sbiw	r26, 0x00	; 0
     f70:	31 f0       	breq	.+12     	; 0xf7e <malloc+0x4a>
     f72:	12 96       	adiw	r26, 0x02	; 2
     f74:	0c 93       	st	X, r16
     f76:	12 97       	sbiw	r26, 0x02	; 2
     f78:	13 96       	adiw	r26, 0x03	; 3
     f7a:	1c 93       	st	X, r17
     f7c:	27 c0       	rjmp	.+78     	; 0xfcc <malloc+0x98>
     f7e:	00 93 75 02 	sts	0x0275, r16	; 0x800275 <__flp>
     f82:	10 93 76 02 	sts	0x0276, r17	; 0x800276 <__flp+0x1>
     f86:	22 c0       	rjmp	.+68     	; 0xfcc <malloc+0x98>
     f88:	21 15       	cp	r18, r1
     f8a:	31 05       	cpc	r19, r1
     f8c:	19 f0       	breq	.+6      	; 0xf94 <malloc+0x60>
     f8e:	42 17       	cp	r20, r18
     f90:	53 07       	cpc	r21, r19
     f92:	18 f4       	brcc	.+6      	; 0xf9a <malloc+0x66>
     f94:	9a 01       	movw	r18, r20
     f96:	bd 01       	movw	r22, r26
     f98:	ef 01       	movw	r28, r30
     f9a:	df 01       	movw	r26, r30
     f9c:	f8 01       	movw	r30, r16
     f9e:	db cf       	rjmp	.-74     	; 0xf56 <malloc+0x22>
     fa0:	21 15       	cp	r18, r1
     fa2:	31 05       	cpc	r19, r1
     fa4:	f9 f0       	breq	.+62     	; 0xfe4 <malloc+0xb0>
     fa6:	28 1b       	sub	r18, r24
     fa8:	39 0b       	sbc	r19, r25
     faa:	24 30       	cpi	r18, 0x04	; 4
     fac:	31 05       	cpc	r19, r1
     fae:	80 f4       	brcc	.+32     	; 0xfd0 <malloc+0x9c>
     fb0:	8a 81       	ldd	r24, Y+2	; 0x02
     fb2:	9b 81       	ldd	r25, Y+3	; 0x03
     fb4:	61 15       	cp	r22, r1
     fb6:	71 05       	cpc	r23, r1
     fb8:	21 f0       	breq	.+8      	; 0xfc2 <malloc+0x8e>
     fba:	fb 01       	movw	r30, r22
     fbc:	93 83       	std	Z+3, r25	; 0x03
     fbe:	82 83       	std	Z+2, r24	; 0x02
     fc0:	04 c0       	rjmp	.+8      	; 0xfca <malloc+0x96>
     fc2:	90 93 76 02 	sts	0x0276, r25	; 0x800276 <__flp+0x1>
     fc6:	80 93 75 02 	sts	0x0275, r24	; 0x800275 <__flp>
     fca:	fe 01       	movw	r30, r28
     fcc:	32 96       	adiw	r30, 0x02	; 2
     fce:	44 c0       	rjmp	.+136    	; 0x1058 <malloc+0x124>
     fd0:	fe 01       	movw	r30, r28
     fd2:	e2 0f       	add	r30, r18
     fd4:	f3 1f       	adc	r31, r19
     fd6:	81 93       	st	Z+, r24
     fd8:	91 93       	st	Z+, r25
     fda:	22 50       	subi	r18, 0x02	; 2
     fdc:	31 09       	sbc	r19, r1
     fde:	39 83       	std	Y+1, r19	; 0x01
     fe0:	28 83       	st	Y, r18
     fe2:	3a c0       	rjmp	.+116    	; 0x1058 <malloc+0x124>
     fe4:	20 91 73 02 	lds	r18, 0x0273	; 0x800273 <__brkval>
     fe8:	30 91 74 02 	lds	r19, 0x0274	; 0x800274 <__brkval+0x1>
     fec:	23 2b       	or	r18, r19
     fee:	41 f4       	brne	.+16     	; 0x1000 <malloc+0xcc>
     ff0:	20 91 02 02 	lds	r18, 0x0202	; 0x800202 <__malloc_heap_start>
     ff4:	30 91 03 02 	lds	r19, 0x0203	; 0x800203 <__malloc_heap_start+0x1>
     ff8:	30 93 74 02 	sts	0x0274, r19	; 0x800274 <__brkval+0x1>
     ffc:	20 93 73 02 	sts	0x0273, r18	; 0x800273 <__brkval>
    1000:	20 91 00 02 	lds	r18, 0x0200	; 0x800200 <__data_start>
    1004:	30 91 01 02 	lds	r19, 0x0201	; 0x800201 <__data_start+0x1>
    1008:	21 15       	cp	r18, r1
    100a:	31 05       	cpc	r19, r1
    100c:	41 f4       	brne	.+16     	; 0x101e <malloc+0xea>
    100e:	2d b7       	in	r18, 0x3d	; 61
    1010:	3e b7       	in	r19, 0x3e	; 62
    1012:	40 91 04 02 	lds	r20, 0x0204	; 0x800204 <__malloc_margin>
    1016:	50 91 05 02 	lds	r21, 0x0205	; 0x800205 <__malloc_margin+0x1>
    101a:	24 1b       	sub	r18, r20
    101c:	35 0b       	sbc	r19, r21
    101e:	e0 91 73 02 	lds	r30, 0x0273	; 0x800273 <__brkval>
    1022:	f0 91 74 02 	lds	r31, 0x0274	; 0x800274 <__brkval+0x1>
    1026:	e2 17       	cp	r30, r18
    1028:	f3 07       	cpc	r31, r19
    102a:	a0 f4       	brcc	.+40     	; 0x1054 <malloc+0x120>
    102c:	2e 1b       	sub	r18, r30
    102e:	3f 0b       	sbc	r19, r31
    1030:	28 17       	cp	r18, r24
    1032:	39 07       	cpc	r19, r25
    1034:	78 f0       	brcs	.+30     	; 0x1054 <malloc+0x120>
    1036:	ac 01       	movw	r20, r24
    1038:	4e 5f       	subi	r20, 0xFE	; 254
    103a:	5f 4f       	sbci	r21, 0xFF	; 255
    103c:	24 17       	cp	r18, r20
    103e:	35 07       	cpc	r19, r21
    1040:	48 f0       	brcs	.+18     	; 0x1054 <malloc+0x120>
    1042:	4e 0f       	add	r20, r30
    1044:	5f 1f       	adc	r21, r31
    1046:	50 93 74 02 	sts	0x0274, r21	; 0x800274 <__brkval+0x1>
    104a:	40 93 73 02 	sts	0x0273, r20	; 0x800273 <__brkval>
    104e:	81 93       	st	Z+, r24
    1050:	91 93       	st	Z+, r25
    1052:	02 c0       	rjmp	.+4      	; 0x1058 <malloc+0x124>
    1054:	e0 e0       	ldi	r30, 0x00	; 0
    1056:	f0 e0       	ldi	r31, 0x00	; 0
    1058:	cf 01       	movw	r24, r30
    105a:	df 91       	pop	r29
    105c:	cf 91       	pop	r28
    105e:	1f 91       	pop	r17
    1060:	0f 91       	pop	r16
    1062:	08 95       	ret

00001064 <free>:
    1064:	cf 93       	push	r28
    1066:	df 93       	push	r29
    1068:	00 97       	sbiw	r24, 0x00	; 0
    106a:	09 f4       	brne	.+2      	; 0x106e <free+0xa>
    106c:	81 c0       	rjmp	.+258    	; 0x1170 <free+0x10c>
    106e:	fc 01       	movw	r30, r24
    1070:	32 97       	sbiw	r30, 0x02	; 2
    1072:	13 82       	std	Z+3, r1	; 0x03
    1074:	12 82       	std	Z+2, r1	; 0x02
    1076:	a0 91 75 02 	lds	r26, 0x0275	; 0x800275 <__flp>
    107a:	b0 91 76 02 	lds	r27, 0x0276	; 0x800276 <__flp+0x1>
    107e:	10 97       	sbiw	r26, 0x00	; 0
    1080:	81 f4       	brne	.+32     	; 0x10a2 <free+0x3e>
    1082:	20 81       	ld	r18, Z
    1084:	31 81       	ldd	r19, Z+1	; 0x01
    1086:	82 0f       	add	r24, r18
    1088:	93 1f       	adc	r25, r19
    108a:	20 91 73 02 	lds	r18, 0x0273	; 0x800273 <__brkval>
    108e:	30 91 74 02 	lds	r19, 0x0274	; 0x800274 <__brkval+0x1>
    1092:	28 17       	cp	r18, r24
    1094:	39 07       	cpc	r19, r25
    1096:	51 f5       	brne	.+84     	; 0x10ec <free+0x88>
    1098:	f0 93 74 02 	sts	0x0274, r31	; 0x800274 <__brkval+0x1>
    109c:	e0 93 73 02 	sts	0x0273, r30	; 0x800273 <__brkval>
    10a0:	67 c0       	rjmp	.+206    	; 0x1170 <free+0x10c>
    10a2:	ed 01       	movw	r28, r26
    10a4:	20 e0       	ldi	r18, 0x00	; 0
    10a6:	30 e0       	ldi	r19, 0x00	; 0
    10a8:	ce 17       	cp	r28, r30
    10aa:	df 07       	cpc	r29, r31
    10ac:	40 f4       	brcc	.+16     	; 0x10be <free+0x5a>
    10ae:	4a 81       	ldd	r20, Y+2	; 0x02
    10b0:	5b 81       	ldd	r21, Y+3	; 0x03
    10b2:	9e 01       	movw	r18, r28
    10b4:	41 15       	cp	r20, r1
    10b6:	51 05       	cpc	r21, r1
    10b8:	f1 f0       	breq	.+60     	; 0x10f6 <free+0x92>
    10ba:	ea 01       	movw	r28, r20
    10bc:	f5 cf       	rjmp	.-22     	; 0x10a8 <free+0x44>
    10be:	d3 83       	std	Z+3, r29	; 0x03
    10c0:	c2 83       	std	Z+2, r28	; 0x02
    10c2:	40 81       	ld	r20, Z
    10c4:	51 81       	ldd	r21, Z+1	; 0x01
    10c6:	84 0f       	add	r24, r20
    10c8:	95 1f       	adc	r25, r21
    10ca:	c8 17       	cp	r28, r24
    10cc:	d9 07       	cpc	r29, r25
    10ce:	59 f4       	brne	.+22     	; 0x10e6 <free+0x82>
    10d0:	88 81       	ld	r24, Y
    10d2:	99 81       	ldd	r25, Y+1	; 0x01
    10d4:	84 0f       	add	r24, r20
    10d6:	95 1f       	adc	r25, r21
    10d8:	02 96       	adiw	r24, 0x02	; 2
    10da:	91 83       	std	Z+1, r25	; 0x01
    10dc:	80 83       	st	Z, r24
    10de:	8a 81       	ldd	r24, Y+2	; 0x02
    10e0:	9b 81       	ldd	r25, Y+3	; 0x03
    10e2:	93 83       	std	Z+3, r25	; 0x03
    10e4:	82 83       	std	Z+2, r24	; 0x02
    10e6:	21 15       	cp	r18, r1
    10e8:	31 05       	cpc	r19, r1
    10ea:	29 f4       	brne	.+10     	; 0x10f6 <free+0x92>
    10ec:	f0 93 76 02 	sts	0x0276, r31	; 0x800276 <__flp+0x1>
    10f0:	e0 93 75 02 	sts	0x0275, r30	; 0x800275 <__flp>
    10f4:	3d c0       	rjmp	.+122    	; 0x1170 <free+0x10c>
    10f6:	e9 01       	movw	r28, r18
    10f8:	fb 83       	std	Y+3, r31	; 0x03
    10fa:	ea 83       	std	Y+2, r30	; 0x02
    10fc:	49 91       	ld	r20, Y+
    10fe:	59 91       	ld	r21, Y+
    1100:	c4 0f       	add	r28, r20
    1102:	d5 1f       	adc	r29, r21
    1104:	ec 17       	cp	r30, r28
    1106:	fd 07       	cpc	r31, r29
    1108:	61 f4       	brne	.+24     	; 0x1122 <free+0xbe>
    110a:	80 81       	ld	r24, Z
    110c:	91 81       	ldd	r25, Z+1	; 0x01
    110e:	84 0f       	add	r24, r20
    1110:	95 1f       	adc	r25, r21
    1112:	02 96       	adiw	r24, 0x02	; 2
    1114:	e9 01       	movw	r28, r18
    1116:	99 83       	std	Y+1, r25	; 0x01
    1118:	88 83       	st	Y, r24
    111a:	82 81       	ldd	r24, Z+2	; 0x02
    111c:	93 81       	ldd	r25, Z+3	; 0x03
    111e:	9b 83       	std	Y+3, r25	; 0x03
    1120:	8a 83       	std	Y+2, r24	; 0x02
    1122:	e0 e0       	ldi	r30, 0x00	; 0
    1124:	f0 e0       	ldi	r31, 0x00	; 0
    1126:	12 96       	adiw	r26, 0x02	; 2
    1128:	8d 91       	ld	r24, X+
    112a:	9c 91       	ld	r25, X
    112c:	13 97       	sbiw	r26, 0x03	; 3
    112e:	00 97       	sbiw	r24, 0x00	; 0
    1130:	19 f0       	breq	.+6      	; 0x1138 <free+0xd4>
    1132:	fd 01       	movw	r30, r26
    1134:	dc 01       	movw	r26, r24
    1136:	f7 cf       	rjmp	.-18     	; 0x1126 <free+0xc2>
    1138:	8d 91       	ld	r24, X+
    113a:	9c 91       	ld	r25, X
    113c:	11 97       	sbiw	r26, 0x01	; 1
    113e:	9d 01       	movw	r18, r26
    1140:	2e 5f       	subi	r18, 0xFE	; 254
    1142:	3f 4f       	sbci	r19, 0xFF	; 255
    1144:	82 0f       	add	r24, r18
    1146:	93 1f       	adc	r25, r19
    1148:	20 91 73 02 	lds	r18, 0x0273	; 0x800273 <__brkval>
    114c:	30 91 74 02 	lds	r19, 0x0274	; 0x800274 <__brkval+0x1>
    1150:	28 17       	cp	r18, r24
    1152:	39 07       	cpc	r19, r25
    1154:	69 f4       	brne	.+26     	; 0x1170 <free+0x10c>
    1156:	30 97       	sbiw	r30, 0x00	; 0
    1158:	29 f4       	brne	.+10     	; 0x1164 <free+0x100>
    115a:	10 92 76 02 	sts	0x0276, r1	; 0x800276 <__flp+0x1>
    115e:	10 92 75 02 	sts	0x0275, r1	; 0x800275 <__flp>
    1162:	02 c0       	rjmp	.+4      	; 0x1168 <free+0x104>
    1164:	13 82       	std	Z+3, r1	; 0x03
    1166:	12 82       	std	Z+2, r1	; 0x02
    1168:	b0 93 74 02 	sts	0x0274, r27	; 0x800274 <__brkval+0x1>
    116c:	a0 93 73 02 	sts	0x0273, r26	; 0x800273 <__brkval>
    1170:	df 91       	pop	r29
    1172:	cf 91       	pop	r28
    1174:	08 95       	ret

00001176 <_exit>:
    1176:	f8 94       	cli

00001178 <__stop_program>:
    1178:	ff cf       	rjmp	.-2      	; 0x1178 <__stop_program>
